

Microchip Technology PIC18 LITE Macro Assembler V1.12 build 49521 
                                                                                               Mon Nov 20 15:56:22 2017

HI-TECH Software Omniscient Code Generator (Lite mode) build 49521
     1  0000                     opt subtitle "HI-TECH Software Omniscient Code Generator (Lite mode) build 49521"
     2                           opt subtitle "HI-TECH Software Omniscient Code Generator (Lite mode) build 49521"
     3                           
     4                           opt pagewidth 120
     5                           
     6                           	opt lm
     7                           
     8  0000                     porta	equ	0F80h
     9  0000                     portb	equ	0F81h
    10  0000                     portc	equ	0F82h
    11  0000                     portd	equ	0F83h
    12  0000                     porte	equ	0F84h
    13  0000                     lata	equ	0F89h
    14  0000                     latb	equ	0F8Ah
    15  0000                     latc	equ	0F8Bh
    16  0000                     latd	equ	0F8Ch
    17  0000                     late	equ	0F8Dh
    18  0000                     trisa	equ	0F92h
    19  0000                     trisb	equ	0F93h
    20  0000                     trisc	equ	0F94h
    21  0000                     trisd	equ	0F95h
    22  0000                     trise	equ	0F96h
    23  0000                     pie1	equ	0F9Dh
    24  0000                     pir1	equ	0F9Eh
    25  0000                     ipr1	equ	0F9Fh
    26  0000                     pie2	equ	0FA0h
    27  0000                     pir2	equ	0FA1h
    28  0000                     ipr2	equ	0FA2h
    29  0000                     t3con	equ	0FB1h
    30  0000                     tmr3l	equ	0FB2h
    31  0000                     tmr3h	equ	0FB3h
    32  0000                     ccp1con	equ	0FBDh
    33  0000                     ccpr1l	equ	0FBEh
    34  0000                     ccpr1h	equ	0FBFh
    35  0000                     adcon1	equ	0FC1h
    36  0000                     adcon0	equ	0FC2h
    37  0000                     adresl	equ	0FC3h
    38  0000                     adresh	equ	0FC4h
    39  0000                     sspcon2	equ	0FC5h
    40  0000                     sspcon1	equ	0FC6h
    41  0000                     sspstat	equ	0FC7h
    42  0000                     sspadd	equ	0FC8h
    43  0000                     sspbuf	equ	0FC9h
    44  0000                     t2con	equ	0FCAh
    45  0000                     pr2	equ	0FCBh
    46  0000                     tmr2	equ	0FCCh
    47  0000                     t1con	equ	0FCDh
    48  0000                     tmr1l	equ	0FCEh
    49  0000                     tmr1h	equ	0FCFh
    50  0000                     rcon	equ	0FD0h
    51  0000                     wdtcon	equ	0FD1h
    52  0000                     lvdcon	equ	0FD2h
    53  0000                     osccon	equ	0FD3h
    54  0000                     t0con	equ	0FD5h
    55  0000                     tmr0l	equ	0FD6h
    56  0000                     tmr0h	equ	0FD7h
    57  0000                     status	equ	0FD8h
    58  0000                     fsr2	equ	0FD9h
    59  0000                     fsr2l	equ	0FD9h
    60  0000                     fsr2h	equ	0FDAh
    61  0000                     plusw2	equ	0FDBh
    62  0000                     preinc2	equ	0FDCh
    63  0000                     postdec2	equ	0FDDh
    64  0000                     postinc2	equ	0FDEh
    65  0000                     indf2	equ	0FDFh
    66  0000                     bsr	equ	0FE0h
    67  0000                     fsr1	equ	0FE1h
    68  0000                     fsr1l	equ	0FE1h
    69  0000                     fsr1h	equ	0FE2h
    70  0000                     plusw1	equ	0FE3h
    71  0000                     preinc1	equ	0FE4h
    72  0000                     postdec1	equ	0FE5h
    73  0000                     postinc1	equ	0FE6h
    74  0000                     indf1	equ	0FE7h
    75  0000                     wreg	equ	0FE8h
    76  0000                     fsr0	equ	0FE9h
    77  0000                     fsr0l	equ	0FE9h
    78  0000                     fsr0h	equ	0FEAh
    79  0000                     plusw0	equ	0FEBh
    80  0000                     preinc0	equ	0FECh
    81  0000                     postdec0	equ	0FEDh
    82  0000                     postinc0	equ	0FEEh
    83  0000                     indf0	equ	0FEFh
    84  0000                     intcon3	equ	0FF0h
    85  0000                     intcon2	equ	0FF1h
    86  0000                     intcon	equ	0FF2h
    87  0000                     prod	equ	0FF3h
    88  0000                     prodl	equ	0FF3h
    89  0000                     prodh	equ	0FF4h
    90  0000                     tablat	equ	0FF5h
    91  0000                     tblptr	equ	0FF6h
    92  0000                     tblptrl	equ	0FF6h
    93  0000                     tblptrh	equ	0FF7h
    94  0000                     tblptru	equ	0FF8h
    95  0000                     pcl	equ	0FF9h
    96  0000                     pclat	equ	0FFAh
    97  0000                     pclath	equ	0FFAh
    98  0000                     pclatu	equ	0FFBh
    99  0000                     stkptr	equ	0FFCh
   100  0000                     tosl	equ	0FFDh
   101  0000                     tosh	equ	0FFEh
   102  0000                     tosu	equ	0FFFh
   103                           opt subtitle "HI-TECH Software Omniscient Code Generator (Lite mode) build 49521"
   104                           
   105  0000                     	endm
   106                           opt subtitle "HI-TECH Software Omniscient Code Generator (Lite mode) build 49521"
   107                           
   108                           opt pagewidth 120
   109  0000                     SPPDATA equ 0F62h ;# 
   110                           opt subtitle "HI-TECH Software Omniscient Code Generator (Lite mode) build 49521"
   111  0000                     SPPCFG equ 0F63h ;# 
   112                           opt subtitle "HI-TECH Software Omniscient Code Generator (Lite mode) build 49521"
   113  0000                     SPPEPS equ 0F64h ;# 
   114                           opt subtitle "HI-TECH Software Omniscient Code Generator (Lite mode) build 49521"
   115  0000                     SPPCON equ 0F65h ;# 
   116                           opt subtitle "HI-TECH Software Omniscient Code Generator (Lite mode) build 49521"
   117  0000                     UFRM equ 0F66h ;# 
   118                           opt subtitle "HI-TECH Software Omniscient Code Generator (Lite mode) build 49521"
   119  0000                     UFRML equ 0F66h ;# 
   120                           opt subtitle "HI-TECH Software Omniscient Code Generator (Lite mode) build 49521"
   121  0000                     UFRMH equ 0F67h ;# 
   122                           opt subtitle "HI-TECH Software Omniscient Code Generator (Lite mode) build 49521"
   123  0000                     UIR equ 0F68h ;# 
   124                           opt subtitle "HI-TECH Software Omniscient Code Generator (Lite mode) build 49521"
   125  0000                     UIE equ 0F69h ;# 
   126                           opt subtitle "HI-TECH Software Omniscient Code Generator (Lite mode) build 49521"
   127  0000                     UEIR equ 0F6Ah ;# 
   128                           opt subtitle "HI-TECH Software Omniscient Code Generator (Lite mode) build 49521"
   129  0000                     UEIE equ 0F6Bh ;# 
   130                           opt subtitle "HI-TECH Software Omniscient Code Generator (Lite mode) build 49521"
   131  0000                     USTAT equ 0F6Ch ;# 
   132                           opt subtitle "HI-TECH Software Omniscient Code Generator (Lite mode) build 49521"
   133  0000                     UCON equ 0F6Dh ;# 
   134                           opt subtitle "HI-TECH Software Omniscient Code Generator (Lite mode) build 49521"
   135  0000                     UADDR equ 0F6Eh ;# 
   136                           opt subtitle "HI-TECH Software Omniscient Code Generator (Lite mode) build 49521"
   137  0000                     UCFG equ 0F6Fh ;# 
   138                           opt subtitle "HI-TECH Software Omniscient Code Generator (Lite mode) build 49521"
   139  0000                     UEP0 equ 0F70h ;# 
   140                           opt subtitle "HI-TECH Software Omniscient Code Generator (Lite mode) build 49521"
   141  0000                     UEP1 equ 0F71h ;# 
   142                           opt subtitle "HI-TECH Software Omniscient Code Generator (Lite mode) build 49521"
   143  0000                     UEP2 equ 0F72h ;# 
   144                           opt subtitle "HI-TECH Software Omniscient Code Generator (Lite mode) build 49521"
   145  0000                     UEP3 equ 0F73h ;# 
   146                           opt subtitle "HI-TECH Software Omniscient Code Generator (Lite mode) build 49521"
   147  0000                     UEP4 equ 0F74h ;# 
   148                           opt subtitle "HI-TECH Software Omniscient Code Generator (Lite mode) build 49521"
   149  0000                     UEP5 equ 0F75h ;# 
   150                           opt subtitle "HI-TECH Software Omniscient Code Generator (Lite mode) build 49521"
   151  0000                     UEP6 equ 0F76h ;# 
   152                           opt subtitle "HI-TECH Software Omniscient Code Generator (Lite mode) build 49521"
   153  0000                     UEP7 equ 0F77h ;# 
   154                           opt subtitle "HI-TECH Software Omniscient Code Generator (Lite mode) build 49521"
   155  0000                     UEP8 equ 0F78h ;# 
   156                           opt subtitle "HI-TECH Software Omniscient Code Generator (Lite mode) build 49521"
   157  0000                     UEP9 equ 0F79h ;# 
   158                           opt subtitle "HI-TECH Software Omniscient Code Generator (Lite mode) build 49521"
   159  0000                     UEP10 equ 0F7Ah ;# 
   160                           opt subtitle "HI-TECH Software Omniscient Code Generator (Lite mode) build 49521"
   161  0000                     UEP11 equ 0F7Bh ;# 
   162                           opt subtitle "HI-TECH Software Omniscient Code Generator (Lite mode) build 49521"
   163  0000                     UEP12 equ 0F7Ch ;# 
   164                           opt subtitle "HI-TECH Software Omniscient Code Generator (Lite mode) build 49521"
   165  0000                     UEP13 equ 0F7Dh ;# 
   166                           opt subtitle "HI-TECH Software Omniscient Code Generator (Lite mode) build 49521"
   167  0000                     UEP14 equ 0F7Eh ;# 
   168                           opt subtitle "HI-TECH Software Omniscient Code Generator (Lite mode) build 49521"
   169  0000                     UEP15 equ 0F7Fh ;# 
   170                           opt subtitle "HI-TECH Software Omniscient Code Generator (Lite mode) build 49521"
   171  0000                     PORTA equ 0F80h ;# 
   172                           opt subtitle "HI-TECH Software Omniscient Code Generator (Lite mode) build 49521"
   173  0000                     PORTB equ 0F81h ;# 
   174                           opt subtitle "HI-TECH Software Omniscient Code Generator (Lite mode) build 49521"
   175  0000                     PORTC equ 0F82h ;# 
   176                           opt subtitle "HI-TECH Software Omniscient Code Generator (Lite mode) build 49521"
   177  0000                     PORTD equ 0F83h ;# 
   178                           opt subtitle "HI-TECH Software Omniscient Code Generator (Lite mode) build 49521"
   179  0000                     PORTE equ 0F84h ;# 
   180                           opt subtitle "HI-TECH Software Omniscient Code Generator (Lite mode) build 49521"
   181  0000                     LATA equ 0F89h ;# 
   182                           opt subtitle "HI-TECH Software Omniscient Code Generator (Lite mode) build 49521"
   183  0000                     LATB equ 0F8Ah ;# 
   184                           opt subtitle "HI-TECH Software Omniscient Code Generator (Lite mode) build 49521"
   185  0000                     LATC equ 0F8Bh ;# 
   186                           opt subtitle "HI-TECH Software Omniscient Code Generator (Lite mode) build 49521"
   187  0000                     LATD equ 0F8Ch ;# 
   188                           opt subtitle "HI-TECH Software Omniscient Code Generator (Lite mode) build 49521"
   189  0000                     LATE equ 0F8Dh ;# 
   190                           opt subtitle "HI-TECH Software Omniscient Code Generator (Lite mode) build 49521"
   191  0000                     TRISA equ 0F92h ;# 
   192                           opt subtitle "HI-TECH Software Omniscient Code Generator (Lite mode) build 49521"
   193  0000                     DDRA equ 0F92h ;# 
   194                           opt subtitle "HI-TECH Software Omniscient Code Generator (Lite mode) build 49521"
   195  0000                     TRISB equ 0F93h ;# 
   196                           opt subtitle "HI-TECH Software Omniscient Code Generator (Lite mode) build 49521"
   197  0000                     DDRB equ 0F93h ;# 
   198                           opt subtitle "HI-TECH Software Omniscient Code Generator (Lite mode) build 49521"
   199  0000                     TRISC equ 0F94h ;# 
   200                           opt subtitle "HI-TECH Software Omniscient Code Generator (Lite mode) build 49521"
   201  0000                     DDRC equ 0F94h ;# 
   202                           opt subtitle "HI-TECH Software Omniscient Code Generator (Lite mode) build 49521"
   203  0000                     TRISD equ 0F95h ;# 
   204                           opt subtitle "HI-TECH Software Omniscient Code Generator (Lite mode) build 49521"
   205  0000                     DDRD equ 0F95h ;# 
   206                           opt subtitle "HI-TECH Software Omniscient Code Generator (Lite mode) build 49521"
   207  0000                     TRISE equ 0F96h ;# 
   208                           opt subtitle "HI-TECH Software Omniscient Code Generator (Lite mode) build 49521"
   209  0000                     DDRE equ 0F96h ;# 
   210                           opt subtitle "HI-TECH Software Omniscient Code Generator (Lite mode) build 49521"
   211  0000                     OSCTUNE equ 0F9Bh ;# 
   212                           opt subtitle "HI-TECH Software Omniscient Code Generator (Lite mode) build 49521"
   213  0000                     PIE1 equ 0F9Dh ;# 
   214                           opt subtitle "HI-TECH Software Omniscient Code Generator (Lite mode) build 49521"
   215  0000                     PIR1 equ 0F9Eh ;# 
   216                           opt subtitle "HI-TECH Software Omniscient Code Generator (Lite mode) build 49521"
   217  0000                     IPR1 equ 0F9Fh ;# 
   218                           opt subtitle "HI-TECH Software Omniscient Code Generator (Lite mode) build 49521"
   219  0000                     PIE2 equ 0FA0h ;# 
   220                           opt subtitle "HI-TECH Software Omniscient Code Generator (Lite mode) build 49521"
   221  0000                     PIR2 equ 0FA1h ;# 
   222                           opt subtitle "HI-TECH Software Omniscient Code Generator (Lite mode) build 49521"
   223  0000                     IPR2 equ 0FA2h ;# 
   224                           opt subtitle "HI-TECH Software Omniscient Code Generator (Lite mode) build 49521"
   225  0000                     EECON1 equ 0FA6h ;# 
   226                           opt subtitle "HI-TECH Software Omniscient Code Generator (Lite mode) build 49521"
   227  0000                     EECON2 equ 0FA7h ;# 
   228                           opt subtitle "HI-TECH Software Omniscient Code Generator (Lite mode) build 49521"
   229  0000                     EEDATA equ 0FA8h ;# 
   230                           opt subtitle "HI-TECH Software Omniscient Code Generator (Lite mode) build 49521"
   231  0000                     EEADR equ 0FA9h ;# 
   232                           opt subtitle "HI-TECH Software Omniscient Code Generator (Lite mode) build 49521"
   233  0000                     RCSTA equ 0FABh ;# 
   234                           opt subtitle "HI-TECH Software Omniscient Code Generator (Lite mode) build 49521"
   235  0000                     RCSTA1 equ 0FABh ;# 
   236                           opt subtitle "HI-TECH Software Omniscient Code Generator (Lite mode) build 49521"
   237  0000                     TXSTA equ 0FACh ;# 
   238                           opt subtitle "HI-TECH Software Omniscient Code Generator (Lite mode) build 49521"
   239  0000                     TXSTA1 equ 0FACh ;# 
   240                           opt subtitle "HI-TECH Software Omniscient Code Generator (Lite mode) build 49521"
   241  0000                     TXREG equ 0FADh ;# 
   242                           opt subtitle "HI-TECH Software Omniscient Code Generator (Lite mode) build 49521"
   243  0000                     TXREG1 equ 0FADh ;# 
   244                           opt subtitle "HI-TECH Software Omniscient Code Generator (Lite mode) build 49521"
   245  0000                     RCREG equ 0FAEh ;# 
   246                           opt subtitle "HI-TECH Software Omniscient Code Generator (Lite mode) build 49521"
   247  0000                     RCREG1 equ 0FAEh ;# 
   248                           opt subtitle "HI-TECH Software Omniscient Code Generator (Lite mode) build 49521"
   249  0000                     SPBRG equ 0FAFh ;# 
   250                           opt subtitle "HI-TECH Software Omniscient Code Generator (Lite mode) build 49521"
   251  0000                     SPBRG1 equ 0FAFh ;# 
   252                           opt subtitle "HI-TECH Software Omniscient Code Generator (Lite mode) build 49521"
   253  0000                     SPBRGH equ 0FB0h ;# 
   254                           opt subtitle "HI-TECH Software Omniscient Code Generator (Lite mode) build 49521"
   255  0000                     T3CON equ 0FB1h ;# 
   256                           opt subtitle "HI-TECH Software Omniscient Code Generator (Lite mode) build 49521"
   257  0000                     TMR3 equ 0FB2h ;# 
   258                           opt subtitle "HI-TECH Software Omniscient Code Generator (Lite mode) build 49521"
   259  0000                     TMR3L equ 0FB2h ;# 
   260                           opt subtitle "HI-TECH Software Omniscient Code Generator (Lite mode) build 49521"
   261  0000                     TMR3H equ 0FB3h ;# 
   262                           opt subtitle "HI-TECH Software Omniscient Code Generator (Lite mode) build 49521"
   263  0000                     CMCON equ 0FB4h ;# 
   264                           opt subtitle "HI-TECH Software Omniscient Code Generator (Lite mode) build 49521"
   265  0000                     CVRCON equ 0FB5h ;# 
   266                           opt subtitle "HI-TECH Software Omniscient Code Generator (Lite mode) build 49521"
   267  0000                     ECCP1AS equ 0FB6h ;# 
   268                           opt subtitle "HI-TECH Software Omniscient Code Generator (Lite mode) build 49521"
   269  0000                     CCP1AS equ 0FB6h ;# 
   270                           opt subtitle "HI-TECH Software Omniscient Code Generator (Lite mode) build 49521"
   271  0000                     ECCP1DEL equ 0FB7h ;# 
   272                           opt subtitle "HI-TECH Software Omniscient Code Generator (Lite mode) build 49521"
   273  0000                     CCP1DEL equ 0FB7h ;# 
   274                           opt subtitle "HI-TECH Software Omniscient Code Generator (Lite mode) build 49521"
   275  0000                     BAUDCON equ 0FB8h ;# 
   276                           opt subtitle "HI-TECH Software Omniscient Code Generator (Lite mode) build 49521"
   277  0000                     BAUDCTL equ 0FB8h ;# 
   278                           opt subtitle "HI-TECH Software Omniscient Code Generator (Lite mode) build 49521"
   279  0000                     CCP2CON equ 0FBAh ;# 
   280                           opt subtitle "HI-TECH Software Omniscient Code Generator (Lite mode) build 49521"
   281  0000                     CCPR2 equ 0FBBh ;# 
   282                           opt subtitle "HI-TECH Software Omniscient Code Generator (Lite mode) build 49521"
   283  0000                     CCPR2L equ 0FBBh ;# 
   284                           opt subtitle "HI-TECH Software Omniscient Code Generator (Lite mode) build 49521"
   285  0000                     CCPR2H equ 0FBCh ;# 
   286                           opt subtitle "HI-TECH Software Omniscient Code Generator (Lite mode) build 49521"
   287  0000                     CCP1CON equ 0FBDh ;# 
   288                           opt subtitle "HI-TECH Software Omniscient Code Generator (Lite mode) build 49521"
   289  0000                     ECCP1CON equ 0FBDh ;# 
   290                           opt subtitle "HI-TECH Software Omniscient Code Generator (Lite mode) build 49521"
   291  0000                     CCPR1 equ 0FBEh ;# 
   292                           opt subtitle "HI-TECH Software Omniscient Code Generator (Lite mode) build 49521"
   293  0000                     CCPR1L equ 0FBEh ;# 
   294                           opt subtitle "HI-TECH Software Omniscient Code Generator (Lite mode) build 49521"
   295  0000                     CCPR1H equ 0FBFh ;# 
   296                           opt subtitle "HI-TECH Software Omniscient Code Generator (Lite mode) build 49521"
   297  0000                     ADCON2 equ 0FC0h ;# 
   298                           opt subtitle "HI-TECH Software Omniscient Code Generator (Lite mode) build 49521"
   299  0000                     ADCON1 equ 0FC1h ;# 
   300                           opt subtitle "HI-TECH Software Omniscient Code Generator (Lite mode) build 49521"
   301  0000                     ADCON0 equ 0FC2h ;# 
   302                           opt subtitle "HI-TECH Software Omniscient Code Generator (Lite mode) build 49521"
   303  0000                     ADRES equ 0FC3h ;# 
   304                           opt subtitle "HI-TECH Software Omniscient Code Generator (Lite mode) build 49521"
   305  0000                     ADRESL equ 0FC3h ;# 
   306                           opt subtitle "HI-TECH Software Omniscient Code Generator (Lite mode) build 49521"
   307  0000                     ADRESH equ 0FC4h ;# 
   308                           opt subtitle "HI-TECH Software Omniscient Code Generator (Lite mode) build 49521"
   309  0000                     SSPCON2 equ 0FC5h ;# 
   310                           opt subtitle "HI-TECH Software Omniscient Code Generator (Lite mode) build 49521"
   311  0000                     SSPCON1 equ 0FC6h ;# 
   312                           opt subtitle "HI-TECH Software Omniscient Code Generator (Lite mode) build 49521"
   313  0000                     SSPSTAT equ 0FC7h ;# 
   314                           opt subtitle "HI-TECH Software Omniscient Code Generator (Lite mode) build 49521"
   315  0000                     SSPADD equ 0FC8h ;# 
   316                           opt subtitle "HI-TECH Software Omniscient Code Generator (Lite mode) build 49521"
   317  0000                     SSPBUF equ 0FC9h ;# 
   318                           opt subtitle "HI-TECH Software Omniscient Code Generator (Lite mode) build 49521"
   319  0000                     T2CON equ 0FCAh ;# 
   320                           opt subtitle "HI-TECH Software Omniscient Code Generator (Lite mode) build 49521"
   321  0000                     PR2 equ 0FCBh ;# 
   322                           opt subtitle "HI-TECH Software Omniscient Code Generator (Lite mode) build 49521"
   323  0000                     MEMCON equ 0FCBh ;# 
   324                           opt subtitle "HI-TECH Software Omniscient Code Generator (Lite mode) build 49521"
   325  0000                     TMR2 equ 0FCCh ;# 
   326                           opt subtitle "HI-TECH Software Omniscient Code Generator (Lite mode) build 49521"
   327  0000                     T1CON equ 0FCDh ;# 
   328                           opt subtitle "HI-TECH Software Omniscient Code Generator (Lite mode) build 49521"
   329  0000                     TMR1 equ 0FCEh ;# 
   330                           opt subtitle "HI-TECH Software Omniscient Code Generator (Lite mode) build 49521"
   331  0000                     TMR1L equ 0FCEh ;# 
   332                           opt subtitle "HI-TECH Software Omniscient Code Generator (Lite mode) build 49521"
   333  0000                     TMR1H equ 0FCFh ;# 
   334                           opt subtitle "HI-TECH Software Omniscient Code Generator (Lite mode) build 49521"
   335  0000                     RCON equ 0FD0h ;# 
   336                           opt subtitle "HI-TECH Software Omniscient Code Generator (Lite mode) build 49521"
   337  0000                     WDTCON equ 0FD1h ;# 
   338                           opt subtitle "HI-TECH Software Omniscient Code Generator (Lite mode) build 49521"
   339  0000                     HLVDCON equ 0FD2h ;# 
   340                           opt subtitle "HI-TECH Software Omniscient Code Generator (Lite mode) build 49521"
   341  0000                     LVDCON equ 0FD2h ;# 
   342                           opt subtitle "HI-TECH Software Omniscient Code Generator (Lite mode) build 49521"
   343  0000                     OSCCON equ 0FD3h ;# 
   344                           opt subtitle "HI-TECH Software Omniscient Code Generator (Lite mode) build 49521"
   345  0000                     T0CON equ 0FD5h ;# 
   346                           opt subtitle "HI-TECH Software Omniscient Code Generator (Lite mode) build 49521"
   347  0000                     TMR0 equ 0FD6h ;# 
   348                           opt subtitle "HI-TECH Software Omniscient Code Generator (Lite mode) build 49521"
   349  0000                     TMR0L equ 0FD6h ;# 
   350                           opt subtitle "HI-TECH Software Omniscient Code Generator (Lite mode) build 49521"
   351  0000                     TMR0H equ 0FD7h ;# 
   352                           opt subtitle "HI-TECH Software Omniscient Code Generator (Lite mode) build 49521"
   353  0000                     STATUS equ 0FD8h ;# 
   354                           opt subtitle "HI-TECH Software Omniscient Code Generator (Lite mode) build 49521"
   355  0000                     FSR2 equ 0FD9h ;# 
   356                           opt subtitle "HI-TECH Software Omniscient Code Generator (Lite mode) build 49521"
   357  0000                     FSR2L equ 0FD9h ;# 
   358                           opt subtitle "HI-TECH Software Omniscient Code Generator (Lite mode) build 49521"
   359  0000                     FSR2H equ 0FDAh ;# 
   360                           opt subtitle "HI-TECH Software Omniscient Code Generator (Lite mode) build 49521"
   361  0000                     PLUSW2 equ 0FDBh ;# 
   362                           opt subtitle "HI-TECH Software Omniscient Code Generator (Lite mode) build 49521"
   363  0000                     PREINC2 equ 0FDCh ;# 
   364                           opt subtitle "HI-TECH Software Omniscient Code Generator (Lite mode) build 49521"
   365  0000                     POSTDEC2 equ 0FDDh ;# 
   366                           opt subtitle "HI-TECH Software Omniscient Code Generator (Lite mode) build 49521"
   367  0000                     POSTINC2 equ 0FDEh ;# 
   368                           opt subtitle "HI-TECH Software Omniscient Code Generator (Lite mode) build 49521"
   369  0000                     INDF2 equ 0FDFh ;# 
   370                           opt subtitle "HI-TECH Software Omniscient Code Generator (Lite mode) build 49521"
   371  0000                     BSR equ 0FE0h ;# 
   372                           opt subtitle "HI-TECH Software Omniscient Code Generator (Lite mode) build 49521"
   373  0000                     FSR1 equ 0FE1h ;# 
   374                           opt subtitle "HI-TECH Software Omniscient Code Generator (Lite mode) build 49521"
   375  0000                     FSR1L equ 0FE1h ;# 
   376                           opt subtitle "HI-TECH Software Omniscient Code Generator (Lite mode) build 49521"
   377  0000                     FSR1H equ 0FE2h ;# 
   378                           opt subtitle "HI-TECH Software Omniscient Code Generator (Lite mode) build 49521"
   379  0000                     PLUSW1 equ 0FE3h ;# 
   380                           opt subtitle "HI-TECH Software Omniscient Code Generator (Lite mode) build 49521"
   381  0000                     PREINC1 equ 0FE4h ;# 
   382                           opt subtitle "HI-TECH Software Omniscient Code Generator (Lite mode) build 49521"
   383  0000                     POSTDEC1 equ 0FE5h ;# 
   384                           opt subtitle "HI-TECH Software Omniscient Code Generator (Lite mode) build 49521"
   385  0000                     POSTINC1 equ 0FE6h ;# 
   386                           opt subtitle "HI-TECH Software Omniscient Code Generator (Lite mode) build 49521"
   387  0000                     INDF1 equ 0FE7h ;# 
   388                           opt subtitle "HI-TECH Software Omniscient Code Generator (Lite mode) build 49521"
   389  0000                     WREG equ 0FE8h ;# 
   390                           opt subtitle "HI-TECH Software Omniscient Code Generator (Lite mode) build 49521"
   391  0000                     FSR0 equ 0FE9h ;# 
   392                           opt subtitle "HI-TECH Software Omniscient Code Generator (Lite mode) build 49521"
   393  0000                     FSR0L equ 0FE9h ;# 
   394                           opt subtitle "HI-TECH Software Omniscient Code Generator (Lite mode) build 49521"
   395  0000                     FSR0H equ 0FEAh ;# 
   396                           opt subtitle "HI-TECH Software Omniscient Code Generator (Lite mode) build 49521"
   397  0000                     PLUSW0 equ 0FEBh ;# 
   398                           opt subtitle "HI-TECH Software Omniscient Code Generator (Lite mode) build 49521"
   399  0000                     PREINC0 equ 0FECh ;# 
   400                           opt subtitle "HI-TECH Software Omniscient Code Generator (Lite mode) build 49521"
   401  0000                     POSTDEC0 equ 0FEDh ;# 
   402                           opt subtitle "HI-TECH Software Omniscient Code Generator (Lite mode) build 49521"
   403  0000                     POSTINC0 equ 0FEEh ;# 
   404                           opt subtitle "HI-TECH Software Omniscient Code Generator (Lite mode) build 49521"
   405  0000                     INDF0 equ 0FEFh ;# 
   406                           opt subtitle "HI-TECH Software Omniscient Code Generator (Lite mode) build 49521"
   407  0000                     INTCON3 equ 0FF0h ;# 
   408                           opt subtitle "HI-TECH Software Omniscient Code Generator (Lite mode) build 49521"
   409  0000                     INTCON2 equ 0FF1h ;# 
   410                           opt subtitle "HI-TECH Software Omniscient Code Generator (Lite mode) build 49521"
   411  0000                     INTCON equ 0FF2h ;# 
   412                           opt subtitle "HI-TECH Software Omniscient Code Generator (Lite mode) build 49521"
   413  0000                     PROD equ 0FF3h ;# 
   414                           opt subtitle "HI-TECH Software Omniscient Code Generator (Lite mode) build 49521"
   415  0000                     PRODL equ 0FF3h ;# 
   416                           opt subtitle "HI-TECH Software Omniscient Code Generator (Lite mode) build 49521"
   417  0000                     PRODH equ 0FF4h ;# 
   418                           opt subtitle "HI-TECH Software Omniscient Code Generator (Lite mode) build 49521"
   419  0000                     TABLAT equ 0FF5h ;# 
   420                           opt subtitle "HI-TECH Software Omniscient Code Generator (Lite mode) build 49521"
   421  0000                     TBLPTR equ 0FF6h ;# 
   422                           opt subtitle "HI-TECH Software Omniscient Code Generator (Lite mode) build 49521"
   423  0000                     TBLPTRL equ 0FF6h ;# 
   424                           opt subtitle "HI-TECH Software Omniscient Code Generator (Lite mode) build 49521"
   425  0000                     TBLPTRH equ 0FF7h ;# 
   426                           opt subtitle "HI-TECH Software Omniscient Code Generator (Lite mode) build 49521"
   427  0000                     TBLPTRU equ 0FF8h ;# 
   428                           opt subtitle "HI-TECH Software Omniscient Code Generator (Lite mode) build 49521"
   429  0000                     PCLAT equ 0FF9h ;# 
   430                           opt subtitle "HI-TECH Software Omniscient Code Generator (Lite mode) build 49521"
   431  0000                     PC equ 0FF9h ;# 
   432                           opt subtitle "HI-TECH Software Omniscient Code Generator (Lite mode) build 49521"
   433  0000                     PCL equ 0FF9h ;# 
   434                           opt subtitle "HI-TECH Software Omniscient Code Generator (Lite mode) build 49521"
   435  0000                     PCLATH equ 0FFAh ;# 
   436                           opt subtitle "HI-TECH Software Omniscient Code Generator (Lite mode) build 49521"
   437  0000                     PCLATU equ 0FFBh ;# 
   438                           opt subtitle "HI-TECH Software Omniscient Code Generator (Lite mode) build 49521"
   439  0000                     STKPTR equ 0FFCh ;# 
   440                           opt subtitle "HI-TECH Software Omniscient Code Generator (Lite mode) build 49521"
   441  0000                     TOS equ 0FFDh ;# 
   442                           opt subtitle "HI-TECH Software Omniscient Code Generator (Lite mode) build 49521"
   443  0000                     TOSL equ 0FFDh ;# 
   444                           opt subtitle "HI-TECH Software Omniscient Code Generator (Lite mode) build 49521"
   445  0000                     TOSH equ 0FFEh ;# 
   446                           opt subtitle "HI-TECH Software Omniscient Code Generator (Lite mode) build 49521"
   447  0000                     TOSU equ 0FFFh ;# 
   448                           opt subtitle "HI-TECH Software Omniscient Code Generator (Lite mode) build 49521"
   449                           
   450                           opt pagewidth 120
   451                           
   452                           	opt lm
   453                           
   454                           	processor	18F4550
   455                           porta	equ	0F80h
   456                           portb	equ	0F81h
   457                           portc	equ	0F82h
   458                           portd	equ	0F83h
   459                           porte	equ	0F84h
   460                           lata	equ	0F89h
   461                           latb	equ	0F8Ah
   462                           latc	equ	0F8Bh
   463                           latd	equ	0F8Ch
   464                           late	equ	0F8Dh
   465                           trisa	equ	0F92h
   466                           trisb	equ	0F93h
   467                           trisc	equ	0F94h
   468                           trisd	equ	0F95h
   469                           trise	equ	0F96h
   470                           pie1	equ	0F9Dh
   471                           pir1	equ	0F9Eh
   472                           ipr1	equ	0F9Fh
   473                           pie2	equ	0FA0h
   474                           pir2	equ	0FA1h
   475                           ipr2	equ	0FA2h
   476                           t3con	equ	0FB1h
   477                           tmr3l	equ	0FB2h
   478                           tmr3h	equ	0FB3h
   479                           ccp1con	equ	0FBDh
   480                           ccpr1l	equ	0FBEh
   481                           ccpr1h	equ	0FBFh
   482                           adcon1	equ	0FC1h
   483                           adcon0	equ	0FC2h
   484                           adresl	equ	0FC3h
   485                           adresh	equ	0FC4h
   486                           sspcon2	equ	0FC5h
   487                           sspcon1	equ	0FC6h
   488                           sspstat	equ	0FC7h
   489                           sspadd	equ	0FC8h
   490                           sspbuf	equ	0FC9h
   491                           t2con	equ	0FCAh
   492  0000                     _ADCON0	set	0xFC2
   493                           opt subtitle "HI-TECH Software Omniscient Code Generator (Lite mode) build 49521"
   494  0000                     _ADCON0bits	set	0xFC2
   495                           opt subtitle "HI-TECH Software Omniscient Code Generator (Lite mode) build 49521"
   496  0000                     _ADCON1	set	0xFC1
   497                           opt subtitle "HI-TECH Software Omniscient Code Generator (Lite mode) build 49521"
   498  0000                     _ADCON2	set	0xFC0
   499                           opt subtitle "HI-TECH Software Omniscient Code Generator (Lite mode) build 49521"
   500  0000                     _ADRESH	set	0xFC4
   501                           opt subtitle "HI-TECH Software Omniscient Code Generator (Lite mode) build 49521"
   502  0000                     _INTCONbits	set	0xFF2
   503                           opt subtitle "HI-TECH Software Omniscient Code Generator (Lite mode) build 49521"
   504  0000                     _LATA	set	0xF89
   505                           opt subtitle "HI-TECH Software Omniscient Code Generator (Lite mode) build 49521"
   506  0000                     _LATB	set	0xF8A
   507                           opt subtitle "HI-TECH Software Omniscient Code Generator (Lite mode) build 49521"
   508  0000                     _LATC	set	0xF8B
   509                           opt subtitle "HI-TECH Software Omniscient Code Generator (Lite mode) build 49521"
   510  0000                     _LATCbits	set	0xF8B
   511                           opt subtitle "HI-TECH Software Omniscient Code Generator (Lite mode) build 49521"
   512  0000                     _LATD	set	0xF8C
   513                           opt subtitle "HI-TECH Software Omniscient Code Generator (Lite mode) build 49521"
   514  0000                     _LATDbits	set	0xF8C
   515                           opt subtitle "HI-TECH Software Omniscient Code Generator (Lite mode) build 49521"
   516  0000                     _LATE	set	0xF8D
   517                           opt subtitle "HI-TECH Software Omniscient Code Generator (Lite mode) build 49521"
   518  0000                     _LATEbits	set	0xF8D
   519                           opt subtitle "HI-TECH Software Omniscient Code Generator (Lite mode) build 49521"
   520  0000                     _OSCCON	set	0xFD3
   521                           opt subtitle "HI-TECH Software Omniscient Code Generator (Lite mode) build 49521"
   522  0000                     _PIE1bits	set	0xF9D
   523                           opt subtitle "HI-TECH Software Omniscient Code Generator (Lite mode) build 49521"
   524  0000                     _PIR1bits	set	0xF9E
   525                           opt subtitle "HI-TECH Software Omniscient Code Generator (Lite mode) build 49521"
   526  0000                     _PORTAbits	set	0xF80
   527                           opt subtitle "HI-TECH Software Omniscient Code Generator (Lite mode) build 49521"
   528  0000                     _PORTD	set	0xF83
   529                           opt subtitle "HI-TECH Software Omniscient Code Generator (Lite mode) build 49521"
   530  0000                     _T0CONbits	set	0xFD5
   531                           opt subtitle "HI-TECH Software Omniscient Code Generator (Lite mode) build 49521"
   532  0000                     _T1CONbits	set	0xFCD
   533                           opt subtitle "HI-TECH Software Omniscient Code Generator (Lite mode) build 49521"
   534  0000                     _TMR0H	set	0xFD7
   535                           opt subtitle "HI-TECH Software Omniscient Code Generator (Lite mode) build 49521"
   536  0000                     _TMR0L	set	0xFD6
   537                           opt subtitle "HI-TECH Software Omniscient Code Generator (Lite mode) build 49521"
   538  0000                     _TMR1H	set	0xFCF
   539                           opt subtitle "HI-TECH Software Omniscient Code Generator (Lite mode) build 49521"
   540  0000                     _TMR1L	set	0xFCE
   541                           opt subtitle "HI-TECH Software Omniscient Code Generator (Lite mode) build 49521"
   542  0000                     _TRISA	set	0xF92
   543                           opt subtitle "HI-TECH Software Omniscient Code Generator (Lite mode) build 49521"
   544  0000                     _TRISB	set	0xF93
   545                           opt subtitle "HI-TECH Software Omniscient Code Generator (Lite mode) build 49521"
   546  0000                     _TRISC	set	0xF94
   547                           opt subtitle "HI-TECH Software Omniscient Code Generator (Lite mode) build 49521"
   548  0000                     _TRISD	set	0xF95
   549                           opt subtitle "HI-TECH Software Omniscient Code Generator (Lite mode) build 49521"
   550  0000                     _TRISE	set	0xF96
   551                           opt subtitle "HI-TECH Software Omniscient Code Generator (Lite mode) build 49521"
   552  0000                     _LATD0	set	0x7C60
   553                           opt subtitle "HI-TECH Software Omniscient Code Generator (Lite mode) build 49521"
   554  0000                     _LATD1	set	0x7C61
   555                           opt subtitle "HI-TECH Software Omniscient Code Generator (Lite mode) build 49521"
   556                           
   557  000800                     __psmallconst:
   558                           opt subtitle "HI-TECH Software Omniscient Code Generator (Lite mode) build 49521"
   559  000800                     __stringdata:
   560                           opt subtitle "HI-TECH Software Omniscient Code Generator (Lite mode) build 49521"
   561  000800                     STR_9:
   562  000800  41                 	db	65	;'A'
   563  000801  63                 	db	99	;'c'
   564  000802  72                 	db	114	;'r'
   565  000803  79                 	db	121	;'y'
   566  000804  6C                 	db	108	;'l'
   567  000805  69                 	db	105	;'i'
   568  000806  63                 	db	99	;'c'
   569  000807  20                 	db	32
   570  000808  42                 	db	66	;'B'
   571  000809  65                 	db	101	;'e'
   572  00080A  6E                 	db	110	;'n'
   573  00080B  64                 	db	100	;'d'
   574  00080C  69                 	db	105	;'i'
   575  00080D  6E                 	db	110	;'n'
   576  00080E  67                 	db	103	;'g'
   577  00080F  00                 	db	0
   578                           opt subtitle "HI-TECH Software Omniscient Code Generator (Lite mode) build 49521"
   579  000810                     STR_8:
   580  000810  4E                 	db	78	;'N'
   581  000811  69                 	db	105	;'i'
   582  000812  63                 	db	99	;'c'
   583  000813  68                 	db	104	;'h'
   584  000814  72                 	db	114	;'r'
   585  000815  6F                 	db	111	;'o'
   586  000816  6D                 	db	109	;'m'
   587  000817  65                 	db	101	;'e'
   588  000818  20                 	db	32
   589  000819  57                 	db	87	;'W'
   590  00081A  69                 	db	105	;'i'
   591  00081B  72                 	db	114	;'r'
   592  00081C  65                 	db	101	;'e'
   593  00081D  00                 	db	0
   594                           opt subtitle "HI-TECH Software Omniscient Code Generator (Lite mode) build 49521"
   595  00081E                     STR_6:
   596  00081E  54                 	db	84	;'T'
   597  00081F  68                 	db	104	;'h'
   598  000820  65                 	db	101	;'e'
   599  000821  20                 	db	32
   600  000822  43                 	db	67	;'C'
   601  000823  75                 	db	117	;'u'
   602  000824  72                 	db	114	;'r'
   603  000825  72                 	db	114	;'r'
   604  000826  65                 	db	101	;'e'
   605  000827  6E                 	db	110	;'n'
   606  000828  74                 	db	116	;'t'
   607  000829  00                 	db	0
   608                           opt subtitle "HI-TECH Software Omniscient Code Generator (Lite mode) build 49521"
   609  00082A                     STR_4:
   610  00082A  48                 	db	72	;'H'
   611  00082B  45                 	db	69	;'E'
   612  00082C  41                 	db	65	;'A'
   613  00082D  54                 	db	84	;'T'
   614  00082E  45                 	db	69	;'E'
   615  00082F  52                 	db	82	;'R'
   616  000830  20                 	db	32
   617  000831  4F                 	db	79	;'O'
   618  000832  46                 	db	70	;'F'
   619  000833  46                 	db	70	;'F'
   620  000834  00                 	db	0
   621                           opt subtitle "HI-TECH Software Omniscient Code Generator (Lite mode) build 49521"
   622  000835                     STR_2:
   623  000835  48                 	db	72	;'H'
   624  000836  45                 	db	69	;'E'
   625  000837  41                 	db	65	;'A'
   626  000838  54                 	db	84	;'T'
   627  000839  45                 	db	69	;'E'
   628  00083A  52                 	db	82	;'R'
   629  00083B  20                 	db	32
   630  00083C  4F                 	db	79	;'O'
   631  00083D  4E                 	db	78	;'N'
   632  00083E  00                 	db	0
   633                           opt subtitle "HI-TECH Software Omniscient Code Generator (Lite mode) build 49521"
   634  00083F                     STR_5:
   635  00083F  54                 	db	84	;'T'
   636  000840  49                 	db	73	;'I'
   637  000841  4D                 	db	77	;'M'
   638  000842  45                 	db	69	;'E'
   639  000843  3A                 	db	58	;':'
   640  000844  20                 	db	32
   641  000845  30                 	db	48	;'0'
   642  000846  00                 	db	0
   643                           opt subtitle "HI-TECH Software Omniscient Code Generator (Lite mode) build 49521"
   644  000847                     STR_1:
   645  000847  54                 	db	84	;'T'
   646  000848  49                 	db	73	;'I'
   647  000849  4D                 	db	77	;'M'
   648  00084A  45                 	db	69	;'E'
   649  00084B  3A                 	db	58	;':'
   650  00084C  20                 	db	32
   651  00084D  00                 	db	0
   652                           opt subtitle "HI-TECH Software Omniscient Code Generator (Lite mode) build 49521"
   653  00084E                     STR_7:
   654  00084E  53                 	db	83	;'S'
   655  00084F  6F                 	db	111	;'o'
   656  000850  75                 	db	117	;'u'
   657  000851  72                 	db	114	;'r'
   658  000852  63                 	db	99	;'c'
   659  000853  65                 	db	101	;'e'
   660  000854  00                 	db	0
   661  0000                     STR_3	equ	STR_1+0
   662                           opt subtitle "HI-TECH Software Omniscient Code Generator (Lite mode) build 49521"
   663  000855                     __end_of__stringdata:
   664                           opt subtitle "HI-TECH Software Omniscient Code Generator (Lite mode) build 49521"
   665                           
   666  0000                     __CFG_CPUDIV$OSC1_PLL2 equ 0x0
   667                           opt subtitle "HI-TECH Software Omniscient Code Generator (Lite mode) build 49521"
   668  0000                     __CFG_PLLDIV$1 equ 0x0
   669                           opt subtitle "HI-TECH Software Omniscient Code Generator (Lite mode) build 49521"
   670  0000                     __CFG_USBDIV$1 equ 0x0
   671                           opt subtitle "HI-TECH Software Omniscient Code Generator (Lite mode) build 49521"
   672  0000                     __CFG_IESO$OFF equ 0x0
   673                           opt subtitle "HI-TECH Software Omniscient Code Generator (Lite mode) build 49521"
   674  0000                     __CFG_FOSC$INTOSC_HS equ 0x0
   675                           opt subtitle "HI-TECH Software Omniscient Code Generator (Lite mode) build 49521"
   676  0000                     __CFG_FCMEN$OFF equ 0x0
   677                           opt subtitle "HI-TECH Software Omniscient Code Generator (Lite mode) build 49521"
   678  0000                     __CFG_VREGEN$OFF equ 0x0
   679                           opt subtitle "HI-TECH Software Omniscient Code Generator (Lite mode) build 49521"
   680  0000                     __CFG_BOR$OFF equ 0x0
   681                           opt subtitle "HI-TECH Software Omniscient Code Generator (Lite mode) build 49521"
   682  0000                     __CFG_BORV$3 equ 0x0
   683                           opt subtitle "HI-TECH Software Omniscient Code Generator (Lite mode) build 49521"
   684  0000                     __CFG_PWRT$OFF equ 0x0
   685                           opt subtitle "HI-TECH Software Omniscient Code Generator (Lite mode) build 49521"
   686  0000                     __CFG_WDTPS$32768 equ 0x0
   687                           opt subtitle "HI-TECH Software Omniscient Code Generator (Lite mode) build 49521"
   688  0000                     __CFG_WDT$OFF equ 0x0
   689                           opt subtitle "HI-TECH Software Omniscient Code Generator (Lite mode) build 49521"
   690  0000                     __CFG_CCP2MX$OFF equ 0x0
   691                           opt subtitle "HI-TECH Software Omniscient Code Generator (Lite mode) build 49521"
   692  0000                     __CFG_PBADEN$OFF equ 0x0
   693                           opt subtitle "HI-TECH Software Omniscient Code Generator (Lite mode) build 49521"
   694  0000                     __CFG_LPT1OSC$OFF equ 0x0
   695                           opt subtitle "HI-TECH Software Omniscient Code Generator (Lite mode) build 49521"
   696  0000                     __CFG_MCLRE$ON equ 0x0
   697                           opt subtitle "HI-TECH Software Omniscient Code Generator (Lite mode) build 49521"
   698  0000                     __CFG_STVREN$OFF equ 0x0
   699                           opt subtitle "HI-TECH Software Omniscient Code Generator (Lite mode) build 49521"
   700  0000                     __CFG_ICPRT$OFF equ 0x0
   701                           opt subtitle "HI-TECH Software Omniscient Code Generator (Lite mode) build 49521"
   702  0000                     __CFG_XINST$OFF equ 0x0
   703                           opt subtitle "HI-TECH Software Omniscient Code Generator (Lite mode) build 49521"
   704  0000                     __CFG_LVP$OFF equ 0x0
   705                           opt subtitle "HI-TECH Software Omniscient Code Generator (Lite mode) build 49521"
   706  0000                     __CFG_CP0$OFF equ 0x0
   707                           opt subtitle "HI-TECH Software Omniscient Code Generator (Lite mode) build 49521"
   708  0000                     __CFG_CP1$OFF equ 0x0
   709                           opt subtitle "HI-TECH Software Omniscient Code Generator (Lite mode) build 49521"
   710  0000                     __CFG_CP2$OFF equ 0x0
   711                           opt subtitle "HI-TECH Software Omniscient Code Generator (Lite mode) build 49521"
   712  0000                     __CFG_CP3$OFF equ 0x0
   713                           opt subtitle "HI-TECH Software Omniscient Code Generator (Lite mode) build 49521"
   714  0000                     __CFG_CPD$OFF equ 0x0
   715                           opt subtitle "HI-TECH Software Omniscient Code Generator (Lite mode) build 49521"
   716  0000                     __CFG_CPB$OFF equ 0x0
   717                           opt subtitle "HI-TECH Software Omniscient Code Generator (Lite mode) build 49521"
   718  0000                     __CFG_WRT0$OFF equ 0x0
   719                           opt subtitle "HI-TECH Software Omniscient Code Generator (Lite mode) build 49521"
   720  0000                     __CFG_WRT1$OFF equ 0x0
   721                           opt subtitle "HI-TECH Software Omniscient Code Generator (Lite mode) build 49521"
   722  0000                     __CFG_WRT2$OFF equ 0x0
   723                           opt subtitle "HI-TECH Software Omniscient Code Generator (Lite mode) build 49521"
   724  0000                     __CFG_WRT3$OFF equ 0x0
   725                           opt subtitle "HI-TECH Software Omniscient Code Generator (Lite mode) build 49521"
   726  0000                     __CFG_WRTB$OFF equ 0x0
   727                           opt subtitle "HI-TECH Software Omniscient Code Generator (Lite mode) build 49521"
   728  0000                     __CFG_WRTC$OFF equ 0x0
   729                           opt subtitle "HI-TECH Software Omniscient Code Generator (Lite mode) build 49521"
   730  0000                     __CFG_WRTD$OFF equ 0x0
   731                           opt subtitle "HI-TECH Software Omniscient Code Generator (Lite mode) build 49521"
   732  0000                     __CFG_EBTR0$OFF equ 0x0
   733                           opt subtitle "HI-TECH Software Omniscient Code Generator (Lite mode) build 49521"
   734  0000                     __CFG_EBTR1$OFF equ 0x0
   735                           opt subtitle "HI-TECH Software Omniscient Code Generator (Lite mode) build 49521"
   736  0000                     __CFG_EBTR2$OFF equ 0x0
   737                           opt subtitle "HI-TECH Software Omniscient Code Generator (Lite mode) build 49521"
   738  0000                     __CFG_EBTR3$OFF equ 0x0
   739                           opt subtitle "HI-TECH Software Omniscient Code Generator (Lite mode) build 49521"
   740  0000                     __CFG_EBTRB$OFF equ 0x0
   741                           opt subtitle "HI-TECH Software Omniscient Code Generator (Lite mode) build 49521"
   742                           
   743                           opt pagewidth 120
   744                           
   745  0013A0                     __pcinit:
   746                           opt subtitle "HI-TECH Software Omniscient Code Generator (Lite mode) build 49521"
   747  0013A0                     start_initialization:
   748                           opt subtitle "HI-TECH Software Omniscient Code Generator (Lite mode) build 49521"
   749                           
   750  0013A0                     __initialization:
   751                           opt subtitle "HI-TECH Software Omniscient Code Generator (Lite mode) build 49521"
   752                           
   753  00003D                     __pbssCOMRAM:
   754                           opt subtitle "HI-TECH Software Omniscient Code Generator (Lite mode) build 49521"
   755  00003D                     _BURN_TIME:
   756  00003D                            ds      2
   757                           opt subtitle "HI-TECH Software Omniscient Code Generator (Lite mode) build 49521"
   758  00003F                     _COOK_COUNT:
   759  00003F                            ds      2
   760                           opt subtitle "HI-TECH Software Omniscient Code Generator (Lite mode) build 49521"
   761  000041                     _CUR_POTVAL:
   762  000041                            ds      2
   763                           opt subtitle "HI-TECH Software Omniscient Code Generator (Lite mode) build 49521"
   764  000043                     _DISP_TIMER1:
   765  000043                            ds      2
   766                           opt subtitle "HI-TECH Software Omniscient Code Generator (Lite mode) build 49521"
   767  000045                     _DISP_TIMER2:
   768  000045                            ds      2
   769                           opt subtitle "HI-TECH Software Omniscient Code Generator (Lite mode) build 49521"
   770  000047                     _ISRUNNING:
   771  000047                            ds      2
   772                           opt subtitle "HI-TECH Software Omniscient Code Generator (Lite mode) build 49521"
   773  000049                     _OLDPRESS:
   774  000049                            ds      2
   775                           opt subtitle "HI-TECH Software Omniscient Code Generator (Lite mode) build 49521"
   776                           
   777  00004B                     _OLD_POTVAL:
   778  00004B                            ds      2
   779                           opt subtitle "HI-TECH Software Omniscient Code Generator (Lite mode) build 49521"
   780  00004D                     _PRSCOUNT:
   781  00004D                            ds      2
   782  00004F                     isr@running:
   783  00004F                            ds      1
   784                           opt subtitle "HI-TECH Software Omniscient Code Generator (Lite mode) build 49521"
   785                           
   786                           opt pagewidth 120
   787  0013A0  EE00  F03D         lfsr	0,__pbssCOMRAM
   788  0013A4  0E13               movlw	19
   789  0013A6                     clear_0:
   790  0013A6  6AEE               clrf	postinc0,c
   791  0013A8  06E8               decf	wreg
   792  0013AA  E1FD               bnz	clear_0
   793                           opt subtitle "HI-TECH Software Omniscient Code Generator (Lite mode) build 49521"
   794                           
   795                           opt pagewidth 120
   796                           
   797                           	opt lm
   798  0013AC                     end_of_initialization:
   799  0013AC                     __end_of__initialization:	GLOBAL	__Lsmallconst
   800  0013AC  0E00               	movlw	low highword(__Lsmallconst)
   801  0013AE  6EF8               	movwf	tblptru
   802  0013B0  0E08               	movlw	high(__Lsmallconst)
   803  0013B2  6EF7               	movwf	tblptrh
   804  0013B4  0100               movlb 0
   805  0013B6  EF67  F007         goto _main	;jump to C main() function
   806                           opt subtitle "HI-TECH Software Omniscient Code Generator (Lite mode) build 49521"
   807                           
   808  000060                     __pcstackBANK0:
   809                           opt subtitle "HI-TECH Software Omniscient Code Generator (Lite mode) build 49521"
   810  000060                     ?_write_command:	; 0 bytes @ 0x0
   811                           opt subtitle "HI-TECH Software Omniscient Code Generator (Lite mode) build 49521"
   812  000060                     ?_write_char:	; 0 bytes @ 0x0
   813                           opt subtitle "HI-TECH Software Omniscient Code Generator (Lite mode) build 49521"
   814  000060                     write_command@data:	; 1 bytes @ 0x0
   815                           opt subtitle "HI-TECH Software Omniscient Code Generator (Lite mode) build 49521"
   816  000060                     write_char@data:	; 1 bytes @ 0x0
   817  000060                     	ds   1
   818  000061                     ??_write_command:	; 0 bytes @ 0x1
   819  000061                     ??_write_char:	; 0 bytes @ 0x1
   820  000061                     	ds   1
   821                           opt subtitle "HI-TECH Software Omniscient Code Generator (Lite mode) build 49521"
   822  000062                     ?_proc_string:	; 0 bytes @ 0x2
   823  000062                     ??_clear_screen:	; 0 bytes @ 0x2
   824  000062                     ??_initialize:	; 0 bytes @ 0x2
   825                           opt subtitle "HI-TECH Software Omniscient Code Generator (Lite mode) build 49521"
   826  000062                     proc_string@string:	; 2 bytes @ 0x2
   827  000062                     	ds   2
   828  000064                     ??_proc_string:	; 0 bytes @ 0x4
   829                           opt subtitle "HI-TECH Software Omniscient Code Generator (Lite mode) build 49521"
   830  000064                     ?_string2screen:	; 0 bytes @ 0x4
   831                           opt subtitle "HI-TECH Software Omniscient Code Generator (Lite mode) build 49521"
   832  000064                     string2screen@row:	; 1 bytes @ 0x4
   833  000064                     	ds   1
   834                           opt subtitle "HI-TECH Software Omniscient Code Generator (Lite mode) build 49521"
   835  000065                     string2screen@pos:	; 1 bytes @ 0x5
   836  000065                     	ds   1
   837                           opt subtitle "HI-TECH Software Omniscient Code Generator (Lite mode) build 49521"
   838  000066                     string2screen@string:	; 2 bytes @ 0x6
   839  000066                     	ds   2
   840  000068                     ??_string2screen:	; 0 bytes @ 0x8
   841  000068                     	ds   1
   842                           opt subtitle "HI-TECH Software Omniscient Code Generator (Lite mode) build 49521"
   843  000069                     string2screen@location:	; 1 bytes @ 0x9
   844  000069                     	ds   1
   845  00006A                     ??_main:	; 0 bytes @ 0xA
   846  00006A                     	ds   2
   847                           opt subtitle "HI-TECH Software Omniscient Code Generator (Lite mode) build 49521"
   848                           
   849  000001                     __pcstackCOMRAM:
   850                           opt subtitle "HI-TECH Software Omniscient Code Generator (Lite mode) build 49521"
   851  000001                     ?_led_bar:	; 0 bytes @ 0x0
   852  000001                     ?_update_lcd_timer:	; 0 bytes @ 0x0
   853  000001                     ?_clear_screen:	; 0 bytes @ 0x0
   854  000001                     ?_initialize:	; 0 bytes @ 0x0
   855  000001                     ?_isr:	; 0 bytes @ 0x0
   856  000001                     ?_main:	; 0 bytes @ 0x0
   857                           opt subtitle "HI-TECH Software Omniscient Code Generator (Lite mode) build 49521"
   858  000001                     ?i2_write_command:	; 0 bytes @ 0x0
   859                           opt subtitle "HI-TECH Software Omniscient Code Generator (Lite mode) build 49521"
   860  000001                     ?i2_write_char:	; 0 bytes @ 0x0
   861  000001                     ?i2_clear_screen:	; 0 bytes @ 0x0
   862                           opt subtitle "HI-TECH Software Omniscient Code Generator (Lite mode) build 49521"
   863  000001                     ?___lwdiv:	; 2 bytes @ 0x0
   864                           opt subtitle "HI-TECH Software Omniscient Code Generator (Lite mode) build 49521"
   865  000001                     ?___lwmod:	; 2 bytes @ 0x0
   866                           opt subtitle "HI-TECH Software Omniscient Code Generator (Lite mode) build 49521"
   867  000001                     ?___wmul:	; 2 bytes @ 0x0
   868                           opt subtitle "HI-TECH Software Omniscient Code Generator (Lite mode) build 49521"
   869  000001                     i2write_command@data:	; 1 bytes @ 0x0
   870                           opt subtitle "HI-TECH Software Omniscient Code Generator (Lite mode) build 49521"
   871  000001                     i2write_char@data:	; 1 bytes @ 0x0
   872                           opt subtitle "HI-TECH Software Omniscient Code Generator (Lite mode) build 49521"
   873  000001                     led_bar@value:	; 2 bytes @ 0x0
   874                           opt subtitle "HI-TECH Software Omniscient Code Generator (Lite mode) build 49521"
   875  000001                     ___lwdiv@dividend:	; 2 bytes @ 0x0
   876                           opt subtitle "HI-TECH Software Omniscient Code Generator (Lite mode) build 49521"
   877  000001                     ___lwmod@dividend:	; 2 bytes @ 0x0
   878                           opt subtitle "HI-TECH Software Omniscient Code Generator (Lite mode) build 49521"
   879  000001                     ___wmul@multiplier:	; 2 bytes @ 0x0
   880  000001                     	ds   1
   881  000002                     ??i2_write_command:	; 0 bytes @ 0x1
   882  000002                     ??i2_write_char:	; 0 bytes @ 0x1
   883  000002                     	ds   1
   884  000003                     ??_led_bar:	; 0 bytes @ 0x2
   885                           opt subtitle "HI-TECH Software Omniscient Code Generator (Lite mode) build 49521"
   886  000003                     ?_clear_line:	; 0 bytes @ 0x2
   887                           opt subtitle "HI-TECH Software Omniscient Code Generator (Lite mode) build 49521"
   888  000003                     ?i2_proc_string:	; 0 bytes @ 0x2
   889  000003                     ??i2_clear_screen:	; 0 bytes @ 0x2
   890                           opt subtitle "HI-TECH Software Omniscient Code Generator (Lite mode) build 49521"
   891  000003                     clear_line@row:	; 1 bytes @ 0x2
   892                           opt subtitle "HI-TECH Software Omniscient Code Generator (Lite mode) build 49521"
   893  000003                     ___lwdiv@divisor:	; 2 bytes @ 0x2
   894                           opt subtitle "HI-TECH Software Omniscient Code Generator (Lite mode) build 49521"
   895  000003                     ___lwmod@divisor:	; 2 bytes @ 0x2
   896                           opt subtitle "HI-TECH Software Omniscient Code Generator (Lite mode) build 49521"
   897  000003                     ___wmul@multiplicand:	; 2 bytes @ 0x2
   898                           opt subtitle "HI-TECH Software Omniscient Code Generator (Lite mode) build 49521"
   899  000003                     i2proc_string@string:	; 2 bytes @ 0x2
   900  000003                     	ds   1
   901                           opt subtitle "HI-TECH Software Omniscient Code Generator (Lite mode) build 49521"
   902  000004                     clear_line@pos:	; 1 bytes @ 0x3
   903  000004                     	ds   1
   904  000005                     ??_clear_line:	; 0 bytes @ 0x4
   905  000005                     ??___lwdiv:	; 0 bytes @ 0x4
   906  000005                     ??___lwmod:	; 0 bytes @ 0x4
   907  000005                     ??___wmul:	; 0 bytes @ 0x4
   908  000005                     ??i2_proc_string:	; 0 bytes @ 0x4
   909                           opt subtitle "HI-TECH Software Omniscient Code Generator (Lite mode) build 49521"
   910  000005                     ?i2_string2screen:	; 0 bytes @ 0x4
   911                           opt subtitle "HI-TECH Software Omniscient Code Generator (Lite mode) build 49521"
   912  000005                     i2string2screen@row:	; 1 bytes @ 0x4
   913                           opt subtitle "HI-TECH Software Omniscient Code Generator (Lite mode) build 49521"
   914  000005                     ___wmul@product:	; 2 bytes @ 0x4
   915  000005                     	ds   1
   916                           opt subtitle "HI-TECH Software Omniscient Code Generator (Lite mode) build 49521"
   917  000006                     ___lwmod@counter:	; 1 bytes @ 0x5
   918                           opt subtitle "HI-TECH Software Omniscient Code Generator (Lite mode) build 49521"
   919  000006                     i2string2screen@pos:	; 1 bytes @ 0x5
   920                           opt subtitle "HI-TECH Software Omniscient Code Generator (Lite mode) build 49521"
   921  000006                     clear_line@i:	; 2 bytes @ 0x5
   922                           opt subtitle "HI-TECH Software Omniscient Code Generator (Lite mode) build 49521"
   923  000006                     ___lwdiv@quotient:	; 2 bytes @ 0x5
   924  000006                     	ds   1
   925                           opt subtitle "HI-TECH Software Omniscient Code Generator (Lite mode) build 49521"
   926  000007                     ?___awdiv:	; 2 bytes @ 0x6
   927                           opt subtitle "HI-TECH Software Omniscient Code Generator (Lite mode) build 49521"
   928  000007                     ___awdiv@dividend:	; 2 bytes @ 0x6
   929                           opt subtitle "HI-TECH Software Omniscient Code Generator (Lite mode) build 49521"
   930  000007                     i2string2screen@string:	; 2 bytes @ 0x6
   931  000007                     	ds   1
   932                           opt subtitle "HI-TECH Software Omniscient Code Generator (Lite mode) build 49521"
   933  000008                     clear_line@location:	; 1 bytes @ 0x7
   934                           opt subtitle "HI-TECH Software Omniscient Code Generator (Lite mode) build 49521"
   935  000008                     ___lwdiv@counter:	; 1 bytes @ 0x7
   936  000008                     	ds   1
   937  000009                     ??i2_string2screen:	; 0 bytes @ 0x8
   938                           opt subtitle "HI-TECH Software Omniscient Code Generator (Lite mode) build 49521"
   939  000009                     ?_utoa:	; 2 bytes @ 0x8
   940                           opt subtitle "HI-TECH Software Omniscient Code Generator (Lite mode) build 49521"
   941  000009                     ___awdiv@divisor:	; 2 bytes @ 0x8
   942                           opt subtitle "HI-TECH Software Omniscient Code Generator (Lite mode) build 49521"
   943  000009                     utoa@buf:	; 2 bytes @ 0x8
   944  000009                     	ds   1
   945                           opt subtitle "HI-TECH Software Omniscient Code Generator (Lite mode) build 49521"
   946  00000A                     i2string2screen@location:	; 1 bytes @ 0x9
   947  00000A                     	ds   1
   948  00000B                     ??___awdiv:	; 0 bytes @ 0xA
   949                           opt subtitle "HI-TECH Software Omniscient Code Generator (Lite mode) build 49521"
   950  00000B                     utoa@val:	; 2 bytes @ 0xA
   951  00000B                     	ds   1
   952                           opt subtitle "HI-TECH Software Omniscient Code Generator (Lite mode) build 49521"
   953  00000C                     ___awdiv@counter:	; 1 bytes @ 0xB
   954  00000C                     	ds   1
   955                           opt subtitle "HI-TECH Software Omniscient Code Generator (Lite mode) build 49521"
   956  00000D                     ___awdiv@sign:	; 1 bytes @ 0xC
   957                           opt subtitle "HI-TECH Software Omniscient Code Generator (Lite mode) build 49521"
   958  00000D                     utoa@base:	; 2 bytes @ 0xC
   959  00000D                     	ds   1
   960                           opt subtitle "HI-TECH Software Omniscient Code Generator (Lite mode) build 49521"
   961  00000E                     ___awdiv@quotient:	; 2 bytes @ 0xD
   962  00000E                     	ds   1
   963  00000F                     ??_utoa:	; 0 bytes @ 0xE
   964                           opt subtitle "HI-TECH Software Omniscient Code Generator (Lite mode) build 49521"
   965  00000F                     utoa@v:	; 2 bytes @ 0xE
   966  00000F                     	ds   2
   967                           opt subtitle "HI-TECH Software Omniscient Code Generator (Lite mode) build 49521"
   968  000011                     utoa@c:	; 1 bytes @ 0x10
   969  000011                     	ds   1
   970                           opt subtitle "HI-TECH Software Omniscient Code Generator (Lite mode) build 49521"
   971  000012                     ?_itoa:	; 2 bytes @ 0x11
   972                           opt subtitle "HI-TECH Software Omniscient Code Generator (Lite mode) build 49521"
   973  000012                     itoa@buf:	; 2 bytes @ 0x11
   974  000012                     	ds   2
   975                           opt subtitle "HI-TECH Software Omniscient Code Generator (Lite mode) build 49521"
   976  000014                     itoa@val:	; 2 bytes @ 0x13
   977  000014                     	ds   2
   978                           opt subtitle "HI-TECH Software Omniscient Code Generator (Lite mode) build 49521"
   979  000016                     itoa@base:	; 2 bytes @ 0x15
   980  000016                     	ds   2
   981  000018                     ??_itoa:	; 0 bytes @ 0x17
   982                           opt subtitle "HI-TECH Software Omniscient Code Generator (Lite mode) build 49521"
   983  000018                     itoa@cp:	; 2 bytes @ 0x17
   984  000018                     	ds   2
   985  00001A                     ??_update_lcd_timer:	; 0 bytes @ 0x19
   986                           opt subtitle "HI-TECH Software Omniscient Code Generator (Lite mode) build 49521"
   987  00001A                     ?_control_relay:	; 0 bytes @ 0x19
   988                           opt subtitle "HI-TECH Software Omniscient Code Generator (Lite mode) build 49521"
   989  00001A                     control_relay@value:	; 1 bytes @ 0x19
   990  00001A                     	ds   1
   991  00001B                     ??_control_relay:	; 0 bytes @ 0x1A
   992  00001B                     	ds   1
   993                           opt subtitle "HI-TECH Software Omniscient Code Generator (Lite mode) build 49521"
   994  00001C                     update_lcd_timer@buf:	; 16 bytes @ 0x1B
   995  00001C                     	ds   1
   996                           opt subtitle "HI-TECH Software Omniscient Code Generator (Lite mode) build 49521"
   997  00001D                     control_relay@buf:	; 16 bytes @ 0x1C
   998  00001D                     	ds   16
   999  00002D                     ??_isr:	; 0 bytes @ 0x2C
  1000  00002D                     	ds   16
  1001                           opt subtitle "HI-TECH Software Omniscient Code Generator (Lite mode) build 49521"
  1002                           
  1003                           opt pagewidth 120
  1004                           
  1005                           	opt lm
  1006                           
  1007                           	processor	18F4550
  1008                           porta	equ	0F80h
  1009                           portb	equ	0F81h
  1010                           portc	equ	0F82h
  1011                           portd	equ	0F83h
  1012                           porte	equ	0F84h
  1013                           lata	equ	0F89h
  1014                           latb	equ	0F8Ah
  1015                           latc	equ	0F8Bh
  1016                           latd	equ	0F8Ch
  1017                           late	equ	0F8Dh
  1018                           trisa	equ	0F92h
  1019                           trisb	equ	0F93h
  1020                           trisc	equ	0F94h
  1021                           trisd	equ	0F95h
  1022                           trise	equ	0F96h
  1023                           pie1	equ	0F9Dh
  1024                           pir1	equ	0F9Eh
  1025                           ipr1	equ	0F9Fh
  1026                           pie2	equ	0FA0h
  1027                           pir2	equ	0FA1h
  1028                           ipr2	equ	0FA2h
  1029                           t3con	equ	0FB1h
  1030                           tmr3l	equ	0FB2h
  1031                           tmr3h	equ	0FB3h
  1032                           ccp1con	equ	0FBDh
  1033                           ccpr1l	equ	0FBEh
  1034                           ccpr1h	equ	0FBFh
  1035                           adcon1	equ	0FC1h
  1036                           adcon0	equ	0FC2h
  1037                           adresl	equ	0FC3h
  1038                           adresh	equ	0FC4h
  1039                           sspcon2	equ	0FC5h
  1040                           sspcon1	equ	0FC6h
  1041                           sspstat	equ	0FC7h
  1042                           sspadd	equ	0FC8h
  1043                           sspbuf	equ	0FC9h
  1044                           t2con	equ	0FCAh
  1045                           pr2	equ	0FCBh
  1046                           tmr2	equ	0FCCh
  1047                           t1con	equ	0FCDh
  1048                           tmr1l	equ	0FCEh
  1049                           tmr1h	equ	0FCFh
  1050                           rcon	equ	0FD0h
  1051                           wdtcon	equ	0FD1h
  1052                           lvdcon	equ	0FD2h
  1053                           osccon	equ	0FD3h
  1054                           t0con	equ	0FD5h
  1055                           tmr0l	equ	0FD6h
  1056                           tmr0h	equ	0FD7h
  1057                           status	equ	0FD8h
  1058                           fsr2	equ	0FD9h
  1059                           fsr2l	equ	0FD9h
  1060                           fsr2h	equ	0FDAh
  1061                           plusw2	equ	0FDBh
  1062                           preinc2	equ	0FDCh
  1063                           postdec2	equ	0FDDh
  1064                           postinc2	equ	0FDEh
  1065                           indf2	equ	0FDFh
  1066                           bsr	equ	0FE0h
  1067                           fsr1	equ	0FE1h
  1068                           fsr1l	equ	0FE1h
  1069                           fsr1h	equ	0FE2h
  1070                           plusw1	equ	0FE3h
  1071                           preinc1	equ	0FE4h
  1072                           postdec1	equ	0FE5h
  1073                           postinc1	equ	0FE6h
  1074                           indf1	equ	0FE7h
  1075                           wreg	equ	0FE8h
  1076                           fsr0	equ	0FE9h
  1077                           fsr0l	equ	0FE9h
  1078                           fsr0h	equ	0FEAh
  1079                           plusw0	equ	0FEBh
  1080                           preinc0	equ	0FECh
  1081                           postdec0	equ	0FEDh
  1082                           postinc0	equ	0FEEh
  1083                           indf0	equ	0FEFh
  1084                           intcon3	equ	0FF0h
  1085                           intcon2	equ	0FF1h
  1086                           intcon	equ	0FF2h
  1087                           prod	equ	0FF3h
  1088                           prodl	equ	0FF3h
  1089                           prodh	equ	0FF4h
  1090                           tablat	equ	0FF5h
  1091                           tblptr	equ	0FF6h
  1092                           tblptrl	equ	0FF6h
  1093                           tblptrh	equ	0FF7h
  1094                           tblptru	equ	0FF8h
  1095                           pcl	equ	0FF9h
  1096                           pclat	equ	0FFAh
  1097                           pclath	equ	0FFAh
  1098                           pclatu	equ	0FFBh
  1099                           stkptr	equ	0FFCh
  1100                           tosl	equ	0FFDh
  1101                           tosh	equ	0FFEh
  1102                           tosu	equ	0FFFh
  1103                           skipnz macro
  1104                           	btfsc	status,2
  1105                           	endm
  1106                           	global	__ramtop
  1107                           	global	__accesstop
  1108                           # 46 "C:\Program Files (x86)\Microchip\xc8\v1.12\include\pic18f4550.h"
  1109                           SPPDATA equ 0F62h ;# 
  1110                           # 65 "C:\Program Files (x86)\Microchip\xc8\v1.12\include\pic18f4550.h"
  1111                           SPPCFG equ 0F63h ;# 
  1112                           # 141 "C:\Program Files (x86)\Microchip\xc8\v1.12\include\pic18f4550.h"
  1113                           SPPEPS equ 0F64h ;# 
  1114                           # 214 "C:\Program Files (x86)\Microchip\xc8\v1.12\include\pic18f4550.h"
  1115                           SPPCON equ 0F65h ;# 
  1116                           # 239 "C:\Program Files (x86)\Microchip\xc8\v1.12\include\pic18f4550.h"
  1117                           UFRM equ 0F66h ;# 
  1118                           # 245 "C:\Program Files (x86)\Microchip\xc8\v1.12\include\pic18f4550.h"
  1119                           UFRML equ 0F66h ;# 
  1120                           # 322 "C:\Program Files (x86)\Microchip\xc8\v1.12\include\pic18f4550.h"
  1121                           UFRMH equ 0F67h ;# 
  1122                           # 361 "C:\Program Files (x86)\Microchip\xc8\v1.12\include\pic18f4550.h"
  1123                           UIR equ 0F68h ;# 
  1124                           # 416 "C:\Program Files (x86)\Microchip\xc8\v1.12\include\pic18f4550.h"
  1125                           UIE equ 0F69h ;# 
  1126                           # 471 "C:\Program Files (x86)\Microchip\xc8\v1.12\include\pic18f4550.h"
  1127                           UEIR equ 0F6Ah ;# 
  1128                           # 521 "C:\Program Files (x86)\Microchip\xc8\v1.12\include\pic18f4550.h"
  1129                           UEIE equ 0F6Bh ;# 
  1130                           # 571 "C:\Program Files (x86)\Microchip\xc8\v1.12\include\pic18f4550.h"
  1131                           USTAT equ 0F6Ch ;# 
  1132                           # 630 "C:\Program Files (x86)\Microchip\xc8\v1.12\include\pic18f4550.h"
  1133                           UCON equ 0F6Dh ;# 
  1134                           # 680 "C:\Program Files (x86)\Microchip\xc8\v1.12\include\pic18f4550.h"
  1135                           UADDR equ 0F6Eh ;# 
  1136                           # 743 "C:\Program Files (x86)\Microchip\xc8\v1.12\include\pic18f4550.h"
  1137                           UCFG equ 0F6Fh ;# 
  1138                           # 824 "C:\Program Files (x86)\Microchip\xc8\v1.12\include\pic18f4550.h"
  1139                           UEP0 equ 0F70h ;# 
  1140                           # 955 "C:\Program Files (x86)\Microchip\xc8\v1.12\include\pic18f4550.h"
  1141                           UEP1 equ 0F71h ;# 
  1142                           # 1086 "C:\Program Files (x86)\Microchip\xc8\v1.12\include\pic18f4550.h"
  1143                           UEP2 equ 0F72h ;# 
  1144                           # 1217 "C:\Program Files (x86)\Microchip\xc8\v1.12\include\pic18f4550.h"
  1145                           UEP3 equ 0F73h ;# 
  1146                           # 1348 "C:\Program Files (x86)\Microchip\xc8\v1.12\include\pic18f4550.h"
  1147                           UEP4 equ 0F74h ;# 
  1148                           # 1479 "C:\Program Files (x86)\Microchip\xc8\v1.12\include\pic18f4550.h"
  1149                           UEP5 equ 0F75h ;# 
  1150                           # 1610 "C:\Program Files (x86)\Microchip\xc8\v1.12\include\pic18f4550.h"
  1151                           UEP6 equ 0F76h ;# 
  1152                           # 1741 "C:\Program Files (x86)\Microchip\xc8\v1.12\include\pic18f4550.h"
  1153                           UEP7 equ 0F77h ;# 
  1154                           # 1872 "C:\Program Files (x86)\Microchip\xc8\v1.12\include\pic18f4550.h"
  1155                           UEP8 equ 0F78h ;# 
  1156                           # 1959 "C:\Program Files (x86)\Microchip\xc8\v1.12\include\pic18f4550.h"
  1157                           UEP9 equ 0F79h ;# 
  1158                           # 2046 "C:\Program Files (x86)\Microchip\xc8\v1.12\include\pic18f4550.h"
  1159                           UEP10 equ 0F7Ah ;# 
  1160                           # 2133 "C:\Program Files (x86)\Microchip\xc8\v1.12\include\pic18f4550.h"
  1161                           UEP11 equ 0F7Bh ;# 
  1162                           # 2220 "C:\Program Files (x86)\Microchip\xc8\v1.12\include\pic18f4550.h"
  1163                           UEP12 equ 0F7Ch ;# 
  1164                           # 2307 "C:\Program Files (x86)\Microchip\xc8\v1.12\include\pic18f4550.h"
  1165                           UEP13 equ 0F7Dh ;# 
  1166                           # 2394 "C:\Program Files (x86)\Microchip\xc8\v1.12\include\pic18f4550.h"
  1167                           UEP14 equ 0F7Eh ;# 
  1168                           # 2481 "C:\Program Files (x86)\Microchip\xc8\v1.12\include\pic18f4550.h"
  1169                           UEP15 equ 0F7Fh ;# 
  1170                           # 2568 "C:\Program Files (x86)\Microchip\xc8\v1.12\include\pic18f4550.h"
  1171                           PORTA equ 0F80h ;# 
  1172                           # 2724 "C:\Program Files (x86)\Microchip\xc8\v1.12\include\pic18f4550.h"
  1173                           PORTB equ 0F81h ;# 
  1174                           # 2833 "C:\Program Files (x86)\Microchip\xc8\v1.12\include\pic18f4550.h"
  1175                           PORTC equ 0F82h ;# 
  1176                           # 2986 "C:\Program Files (x86)\Microchip\xc8\v1.12\include\pic18f4550.h"
  1177                           PORTD equ 0F83h ;# 
  1178                           # 3106 "C:\Program Files (x86)\Microchip\xc8\v1.12\include\pic18f4550.h"
  1179                           PORTE equ 0F84h ;# 
  1180                           # 3357 "C:\Program Files (x86)\Microchip\xc8\v1.12\include\pic18f4550.h"
  1181                           LATA equ 0F89h ;# 
  1182                           # 3492 "C:\Program Files (x86)\Microchip\xc8\v1.12\include\pic18f4550.h"
  1183                           LATB equ 0F8Ah ;# 
  1184                           # 3624 "C:\Program Files (x86)\Microchip\xc8\v1.12\include\pic18f4550.h"
  1185                           LATC equ 0F8Bh ;# 
  1186                           # 3739 "C:\Program Files (x86)\Microchip\xc8\v1.12\include\pic18f4550.h"
  1187                           LATD equ 0F8Ch ;# 
  1188                           # 3871 "C:\Program Files (x86)\Microchip\xc8\v1.12\include\pic18f4550.h"
  1189                           LATE equ 0F8Dh ;# 
  1190                           # 3973 "C:\Program Files (x86)\Microchip\xc8\v1.12\include\pic18f4550.h"
  1191                           TRISA equ 0F92h ;# 
  1192                           # 3978 "C:\Program Files (x86)\Microchip\xc8\v1.12\include\pic18f4550.h"
  1193                           DDRA equ 0F92h ;# 
  1194                           # 4170 "C:\Program Files (x86)\Microchip\xc8\v1.12\include\pic18f4550.h"
  1195                           TRISB equ 0F93h ;# 
  1196                           # 4175 "C:\Program Files (x86)\Microchip\xc8\v1.12\include\pic18f4550.h"
  1197                           DDRB equ 0F93h ;# 
  1198                           # 4391 "C:\Program Files (x86)\Microchip\xc8\v1.12\include\pic18f4550.h"
  1199                           TRISC equ 0F94h ;# 
  1200                           # 4396 "C:\Program Files (x86)\Microchip\xc8\v1.12\include\pic18f4550.h"
  1201                           DDRC equ 0F94h ;# 
  1202                           # 4562 "C:\Program Files (x86)\Microchip\xc8\v1.12\include\pic18f4550.h"
  1203                           TRISD equ 0F95h ;# 
  1204                           # 4567 "C:\Program Files (x86)\Microchip\xc8\v1.12\include\pic18f4550.h"
  1205                           DDRD equ 0F95h ;# 
  1206                           # 4783 "C:\Program Files (x86)\Microchip\xc8\v1.12\include\pic18f4550.h"
  1207                           TRISE equ 0F96h ;# 
  1208                           # 4788 "C:\Program Files (x86)\Microchip\xc8\v1.12\include\pic18f4550.h"
  1209                           DDRE equ 0F96h ;# 
  1210                           # 4884 "C:\Program Files (x86)\Microchip\xc8\v1.12\include\pic18f4550.h"
  1211                           OSCTUNE equ 0F9Bh ;# 
  1212                           # 4942 "C:\Program Files (x86)\Microchip\xc8\v1.12\include\pic18f4550.h"
  1213                           PIE1 equ 0F9Dh ;# 
  1214                           # 5030 "C:\Program Files (x86)\Microchip\xc8\v1.12\include\pic18f4550.h"
  1215                           PIR1 equ 0F9Eh ;# 
  1216                           # 5118 "C:\Program Files (x86)\Microchip\xc8\v1.12\include\pic18f4550.h"
  1217                           IPR1 equ 0F9Fh ;# 
  1218                           # 5206 "C:\Program Files (x86)\Microchip\xc8\v1.12\include\pic18f4550.h"
  1219                           PIE2 equ 0FA0h ;# 
  1220                           # 5276 "C:\Program Files (x86)\Microchip\xc8\v1.12\include\pic18f4550.h"
  1221                           PIR2 equ 0FA1h ;# 
  1222                           # 5346 "C:\Program Files (x86)\Microchip\xc8\v1.12\include\pic18f4550.h"
  1223                           IPR2 equ 0FA2h ;# 
  1224                           # 5416 "C:\Program Files (x86)\Microchip\xc8\v1.12\include\pic18f4550.h"
  1225                           EECON1 equ 0FA6h ;# 
  1226                           # 5481 "C:\Program Files (x86)\Microchip\xc8\v1.12\include\pic18f4550.h"
  1227                           EECON2 equ 0FA7h ;# 
  1228                           # 5487 "C:\Program Files (x86)\Microchip\xc8\v1.12\include\pic18f4550.h"
  1229                           EEDATA equ 0FA8h ;# 
  1230                           # 5493 "C:\Program Files (x86)\Microchip\xc8\v1.12\include\pic18f4550.h"
  1231                           EEADR equ 0FA9h ;# 
  1232                           # 5499 "C:\Program Files (x86)\Microchip\xc8\v1.12\include\pic18f4550.h"
  1233                           RCSTA equ 0FABh ;# 
  1234                           # 5504 "C:\Program Files (x86)\Microchip\xc8\v1.12\include\pic18f4550.h"
  1235                           RCSTA1 equ 0FABh ;# 
  1236                           # 5656 "C:\Program Files (x86)\Microchip\xc8\v1.12\include\pic18f4550.h"
  1237                           TXSTA equ 0FACh ;# 
  1238                           # 5661 "C:\Program Files (x86)\Microchip\xc8\v1.12\include\pic18f4550.h"
  1239                           TXSTA1 equ 0FACh ;# 
  1240                           # 5919 "C:\Program Files (x86)\Microchip\xc8\v1.12\include\pic18f4550.h"
  1241                           TXREG equ 0FADh ;# 
  1242                           # 5924 "C:\Program Files (x86)\Microchip\xc8\v1.12\include\pic18f4550.h"
  1243                           TXREG1 equ 0FADh ;# 
  1244                           # 5930 "C:\Program Files (x86)\Microchip\xc8\v1.12\include\pic18f4550.h"
  1245                           RCREG equ 0FAEh ;# 
  1246                           # 5935 "C:\Program Files (x86)\Microchip\xc8\v1.12\include\pic18f4550.h"
  1247                           RCREG1 equ 0FAEh ;# 
  1248                           # 5941 "C:\Program Files (x86)\Microchip\xc8\v1.12\include\pic18f4550.h"
  1249                           SPBRG equ 0FAFh ;# 
  1250                           # 5946 "C:\Program Files (x86)\Microchip\xc8\v1.12\include\pic18f4550.h"
  1251                           SPBRG1 equ 0FAFh ;# 
  1252                           # 5952 "C:\Program Files (x86)\Microchip\xc8\v1.12\include\pic18f4550.h"
  1253                           SPBRGH equ 0FB0h ;# 
  1254                           # 5958 "C:\Program Files (x86)\Microchip\xc8\v1.12\include\pic18f4550.h"
  1255                           T3CON equ 0FB1h ;# 
  1256                           # 6080 "C:\Program Files (x86)\Microchip\xc8\v1.12\include\pic18f4550.h"
  1257                           TMR3 equ 0FB2h ;# 
  1258                           # 6086 "C:\Program Files (x86)\Microchip\xc8\v1.12\include\pic18f4550.h"
  1259                           TMR3L equ 0FB2h ;# 
  1260                           # 6092 "C:\Program Files (x86)\Microchip\xc8\v1.12\include\pic18f4550.h"
  1261                           TMR3H equ 0FB3h ;# 
  1262                           # 6098 "C:\Program Files (x86)\Microchip\xc8\v1.12\include\pic18f4550.h"
  1263                           CMCON equ 0FB4h ;# 
  1264                           # 6193 "C:\Program Files (x86)\Microchip\xc8\v1.12\include\pic18f4550.h"
  1265                           CVRCON equ 0FB5h ;# 
  1266                           # 6277 "C:\Program Files (x86)\Microchip\xc8\v1.12\include\pic18f4550.h"
  1267                           ECCP1AS equ 0FB6h ;# 
  1268                           # 6282 "C:\Program Files (x86)\Microchip\xc8\v1.12\include\pic18f4550.h"
  1269                           CCP1AS equ 0FB6h ;# 
  1270                           # 6438 "C:\Program Files (x86)\Microchip\xc8\v1.12\include\pic18f4550.h"
  1271                           ECCP1DEL equ 0FB7h ;# 
  1272                           # 6443 "C:\Program Files (x86)\Microchip\xc8\v1.12\include\pic18f4550.h"
  1273                           CCP1DEL equ 0FB7h ;# 
  1274                           # 6575 "C:\Program Files (x86)\Microchip\xc8\v1.12\include\pic18f4550.h"
  1275                           BAUDCON equ 0FB8h ;# 
  1276                           # 6580 "C:\Program Files (x86)\Microchip\xc8\v1.12\include\pic18f4550.h"
  1277                           BAUDCTL equ 0FB8h ;# 
  1278                           # 6754 "C:\Program Files (x86)\Microchip\xc8\v1.12\include\pic18f4550.h"
  1279                           CCP2CON equ 0FBAh ;# 
  1280                           # 6817 "C:\Program Files (x86)\Microchip\xc8\v1.12\include\pic18f4550.h"
  1281                           CCPR2 equ 0FBBh ;# 
  1282                           # 6823 "C:\Program Files (x86)\Microchip\xc8\v1.12\include\pic18f4550.h"
  1283                           CCPR2L equ 0FBBh ;# 
  1284                           # 6829 "C:\Program Files (x86)\Microchip\xc8\v1.12\include\pic18f4550.h"
  1285                           CCPR2H equ 0FBCh ;# 
  1286                           # 6835 "C:\Program Files (x86)\Microchip\xc8\v1.12\include\pic18f4550.h"
  1287                           CCP1CON equ 0FBDh ;# 
  1288                           # 6840 "C:\Program Files (x86)\Microchip\xc8\v1.12\include\pic18f4550.h"
  1289                           ECCP1CON equ 0FBDh ;# 
  1290                           # 6996 "C:\Program Files (x86)\Microchip\xc8\v1.12\include\pic18f4550.h"
  1291                           CCPR1 equ 0FBEh ;# 
  1292                           # 7002 "C:\Program Files (x86)\Microchip\xc8\v1.12\include\pic18f4550.h"
  1293                           CCPR1L equ 0FBEh ;# 
  1294                           # 7008 "C:\Program Files (x86)\Microchip\xc8\v1.12\include\pic18f4550.h"
  1295                           CCPR1H equ 0FBFh ;# 
  1296                           # 7014 "C:\Program Files (x86)\Microchip\xc8\v1.12\include\pic18f4550.h"
  1297                           ADCON2 equ 0FC0h ;# 
  1298                           # 7084 "C:\Program Files (x86)\Microchip\xc8\v1.12\include\pic18f4550.h"
  1299                           ADCON1 equ 0FC1h ;# 
  1300                           # 7174 "C:\Program Files (x86)\Microchip\xc8\v1.12\include\pic18f4550.h"
  1301                           ADCON0 equ 0FC2h ;# 
  1302                           # 7296 "C:\Program Files (x86)\Microchip\xc8\v1.12\include\pic18f4550.h"
  1303                           ADRES equ 0FC3h ;# 
  1304                           # 7302 "C:\Program Files (x86)\Microchip\xc8\v1.12\include\pic18f4550.h"
  1305                           ADRESL equ 0FC3h ;# 
  1306                           # 7308 "C:\Program Files (x86)\Microchip\xc8\v1.12\include\pic18f4550.h"
  1307                           ADRESH equ 0FC4h ;# 
  1308                           # 7314 "C:\Program Files (x86)\Microchip\xc8\v1.12\include\pic18f4550.h"
  1309                           SSPCON2 equ 0FC5h ;# 
  1310                           # 7375 "C:\Program Files (x86)\Microchip\xc8\v1.12\include\pic18f4550.h"
  1311                           SSPCON1 equ 0FC6h ;# 
  1312                           # 7444 "C:\Program Files (x86)\Microchip\xc8\v1.12\include\pic18f4550.h"
  1313                           SSPSTAT equ 0FC7h ;# 
  1314                           # 7710 "C:\Program Files (x86)\Microchip\xc8\v1.12\include\pic18f4550.h"
  1315                           SSPADD equ 0FC8h ;# 
  1316                           # 7716 "C:\Program Files (x86)\Microchip\xc8\v1.12\include\pic18f4550.h"
  1317                           SSPBUF equ 0FC9h ;# 
  1318                           # 7722 "C:\Program Files (x86)\Microchip\xc8\v1.12\include\pic18f4550.h"
  1319                           T2CON equ 0FCAh ;# 
  1320                           # 7819 "C:\Program Files (x86)\Microchip\xc8\v1.12\include\pic18f4550.h"
  1321                           PR2 equ 0FCBh ;# 
  1322                           # 7824 "C:\Program Files (x86)\Microchip\xc8\v1.12\include\pic18f4550.h"
  1323                           MEMCON equ 0FCBh ;# 
  1324                           # 7830 "C:\Program Files (x86)\Microchip\xc8\v1.12\include\pic18f4550.h"
  1325                           TMR2 equ 0FCCh ;# 
  1326                           # 7836 "C:\Program Files (x86)\Microchip\xc8\v1.12\include\pic18f4550.h"
  1327                           T1CON equ 0FCDh ;# 
  1328                           # 7940 "C:\Program Files (x86)\Microchip\xc8\v1.12\include\pic18f4550.h"
  1329                           TMR1 equ 0FCEh ;# 
  1330                           # 7946 "C:\Program Files (x86)\Microchip\xc8\v1.12\include\pic18f4550.h"
  1331                           TMR1L equ 0FCEh ;# 
  1332                           # 7952 "C:\Program Files (x86)\Microchip\xc8\v1.12\include\pic18f4550.h"
  1333                           TMR1H equ 0FCFh ;# 
  1334                           # 7958 "C:\Program Files (x86)\Microchip\xc8\v1.12\include\pic18f4550.h"
  1335                           RCON equ 0FD0h ;# 
  1336                           # 8106 "C:\Program Files (x86)\Microchip\xc8\v1.12\include\pic18f4550.h"
  1337                           WDTCON equ 0FD1h ;# 
  1338                           # 8133 "C:\Program Files (x86)\Microchip\xc8\v1.12\include\pic18f4550.h"
  1339                           HLVDCON equ 0FD2h ;# 
  1340                           # 8138 "C:\Program Files (x86)\Microchip\xc8\v1.12\include\pic18f4550.h"
  1341                           LVDCON equ 0FD2h ;# 
  1342                           # 8402 "C:\Program Files (x86)\Microchip\xc8\v1.12\include\pic18f4550.h"
  1343                           OSCCON equ 0FD3h ;# 
  1344                           # 8484 "C:\Program Files (x86)\Microchip\xc8\v1.12\include\pic18f4550.h"
  1345                           T0CON equ 0FD5h ;# 
  1346                           # 8553 "C:\Program Files (x86)\Microchip\xc8\v1.12\include\pic18f4550.h"
  1347                           TMR0 equ 0FD6h ;# 
  1348                           # 8559 "C:\Program Files (x86)\Microchip\xc8\v1.12\include\pic18f4550.h"
  1349                           TMR0L equ 0FD6h ;# 
  1350                           # 8565 "C:\Program Files (x86)\Microchip\xc8\v1.12\include\pic18f4550.h"
  1351                           TMR0H equ 0FD7h ;# 
  1352                           # 8571 "C:\Program Files (x86)\Microchip\xc8\v1.12\include\pic18f4550.h"
  1353                           STATUS equ 0FD8h ;# 
  1354                           # 8649 "C:\Program Files (x86)\Microchip\xc8\v1.12\include\pic18f4550.h"
  1355                           FSR2 equ 0FD9h ;# 
  1356                           # 8655 "C:\Program Files (x86)\Microchip\xc8\v1.12\include\pic18f4550.h"
  1357                           FSR2L equ 0FD9h ;# 
  1358                           # 8661 "C:\Program Files (x86)\Microchip\xc8\v1.12\include\pic18f4550.h"
  1359                           FSR2H equ 0FDAh ;# 
  1360                           # 8667 "C:\Program Files (x86)\Microchip\xc8\v1.12\include\pic18f4550.h"
  1361                           PLUSW2 equ 0FDBh ;# 
  1362                           # 8673 "C:\Program Files (x86)\Microchip\xc8\v1.12\include\pic18f4550.h"
  1363                           PREINC2 equ 0FDCh ;# 
  1364                           # 8679 "C:\Program Files (x86)\Microchip\xc8\v1.12\include\pic18f4550.h"
  1365                           POSTDEC2 equ 0FDDh ;# 
  1366                           # 8685 "C:\Program Files (x86)\Microchip\xc8\v1.12\include\pic18f4550.h"
  1367                           POSTINC2 equ 0FDEh ;# 
  1368                           # 8691 "C:\Program Files (x86)\Microchip\xc8\v1.12\include\pic18f4550.h"
  1369                           INDF2 equ 0FDFh ;# 
  1370                           # 8697 "C:\Program Files (x86)\Microchip\xc8\v1.12\include\pic18f4550.h"
  1371                           BSR equ 0FE0h ;# 
  1372                           # 8703 "C:\Program Files (x86)\Microchip\xc8\v1.12\include\pic18f4550.h"
  1373                           FSR1 equ 0FE1h ;# 
  1374                           # 8709 "C:\Program Files (x86)\Microchip\xc8\v1.12\include\pic18f4550.h"
  1375                           FSR1L equ 0FE1h ;# 
  1376                           # 8715 "C:\Program Files (x86)\Microchip\xc8\v1.12\include\pic18f4550.h"
  1377                           FSR1H equ 0FE2h ;# 
  1378                           # 8721 "C:\Program Files (x86)\Microchip\xc8\v1.12\include\pic18f4550.h"
  1379                           PLUSW1 equ 0FE3h ;# 
  1380                           # 8727 "C:\Program Files (x86)\Microchip\xc8\v1.12\include\pic18f4550.h"
  1381                           PREINC1 equ 0FE4h ;# 
  1382                           # 8733 "C:\Program Files (x86)\Microchip\xc8\v1.12\include\pic18f4550.h"
  1383                           POSTDEC1 equ 0FE5h ;# 
  1384                           # 8739 "C:\Program Files (x86)\Microchip\xc8\v1.12\include\pic18f4550.h"
  1385                           POSTINC1 equ 0FE6h ;# 
  1386                           # 8745 "C:\Program Files (x86)\Microchip\xc8\v1.12\include\pic18f4550.h"
  1387                           INDF1 equ 0FE7h ;# 
  1388                           # 8751 "C:\Program Files (x86)\Microchip\xc8\v1.12\include\pic18f4550.h"
  1389                           WREG equ 0FE8h ;# 
  1390                           # 8757 "C:\Program Files (x86)\Microchip\xc8\v1.12\include\pic18f4550.h"
  1391  000ECE                     __ptext0:
  1392                           opt subtitle "HI-TECH Software Omniscient Code Generator (Lite mode) build 49521"
  1393                           
  1394                           opt pagewidth 120
  1395                           
  1396  0000                     	__size_of_main	equ	__end_of_main-_main
  1397                           opt subtitle "HI-TECH Software Omniscient Code Generator (Lite mode) build 49521"
  1398  000ECE                     _main:
  1399                           opt subtitle "HI-TECH Software Omniscient Code Generator (Lite mode) build 49521"
  1400                           
  1401                           opt pagewidth 120
  1402  000ECE                     l1496:
  1403                           opt subtitle "HI-TECH Software Omniscient Code Generator (Lite mode) build 49521"
  1404  000ECE  ECD7  F005         	call	_initialize	;wreg free
  1405                           opt subtitle "HI-TECH Software Omniscient Code Generator (Lite mode) build 49521"
  1406                           
  1407  000ED2                     l1498:
  1408                           opt subtitle "HI-TECH Software Omniscient Code Generator (Lite mode) build 49521"
  1409  000ED2  0E00               	movlw	high(06h)
  1410  000ED4  6E44               	movwf	((c:_DISP_TIMER1+1)),c	;volatile
  1411  000ED6  0E06               	movlw	low(06h)
  1412  000ED8  6E43               	movwf	((c:_DISP_TIMER1)),c	;volatile
  1413                           opt subtitle "HI-TECH Software Omniscient Code Generator (Lite mode) build 49521"
  1414                           
  1415  000EDA                     l1500:
  1416                           opt subtitle "HI-TECH Software Omniscient Code Generator (Lite mode) build 49521"
  1417  000EDA  0E00               	movlw	high(06h)
  1418  000EDC  6E46               	movwf	((c:_DISP_TIMER2+1)),c	;volatile
  1419  000EDE  0E06               	movlw	low(06h)
  1420  000EE0  6E45               	movwf	((c:_DISP_TIMER2)),c	;volatile
  1421                           opt subtitle "HI-TECH Software Omniscient Code Generator (Lite mode) build 49521"
  1422                           
  1423  000EE2  ECDD  F009         	call	_clear_screen	;wreg free
  1424                           opt subtitle "HI-TECH Software Omniscient Code Generator (Lite mode) build 49521"
  1425                           
  1426  000EE6                     l1502:
  1427                           opt subtitle "HI-TECH Software Omniscient Code Generator (Lite mode) build 49521"
  1428  000EE6  0100               	movlb	0	; () banked
  1429  000EE8  6F6A               	movwf	(??_main+0+0)&0ffh
  1430  000EEA  0E01               	movlw	low(01h)
  1431  000EEC  0100               	movlb	0	; () banked
  1432  000EEE  0100               	movlb	0	; () banked
  1433  000EF0  6F64               	movwf	((?_string2screen))&0ffh
  1434  000EF2  0100               	movlb	0	; () banked
  1435  000EF4  516A               	movf	(??_main+0+0)&0ffh,w
  1436  000EF6  0100               	movlb	0	; () banked
  1437  000EF8  6F6B               	movwf	(??_main+1+0)&0ffh
  1438  000EFA  0E00               	movlw	low(0)
  1439  000EFC  0100               	movlb	0	; () banked
  1440  000EFE  0100               	movlb	0	; () banked
  1441  000F00  6F65               	movwf	(0+(?_string2screen+01h))&0ffh
  1442  000F02  0100               	movlb	0	; () banked
  1443  000F04  516B               	movf	(??_main+1+0)&0ffh,w
  1444  000F06  0E08               	movlw	high(STR_8)
  1445  000F08  0100               	movlb	0	; () banked
  1446  000F0A  0100               	movlb	0	; () banked
  1447  000F0C  6F67               	movwf	(1+(?_string2screen+02h))&0ffh
  1448  000F0E  0E10               	movlw	low(STR_8)
  1449  000F10  0100               	movlb	0	; () banked
  1450  000F12  6F66               	movwf	(0+(?_string2screen+02h))&0ffh
  1451  000F14  0100               	movlb	0	; () banked
  1452  000F16  EC8B  F008         	call	_string2screen	;wreg free
  1453                           opt subtitle "HI-TECH Software Omniscient Code Generator (Lite mode) build 49521"
  1454                           
  1455  000F1A                     l1504:
  1456                           opt subtitle "HI-TECH Software Omniscient Code Generator (Lite mode) build 49521"
  1457  000F1A  0100               	movlb	0	; () banked
  1458  000F1C  6F6A               	movwf	(??_main+0+0)&0ffh
  1459  000F1E  0E02               	movlw	low(02h)
  1460  000F20  0100               	movlb	0	; () banked
  1461  000F22  0100               	movlb	0	; () banked
  1462  000F24  6F64               	movwf	((?_string2screen))&0ffh
  1463  000F26  0100               	movlb	0	; () banked
  1464  000F28  516A               	movf	(??_main+0+0)&0ffh,w
  1465  000F2A  0100               	movlb	0	; () banked
  1466  000F2C  6F6B               	movwf	(??_main+1+0)&0ffh
  1467  000F2E  0E00               	movlw	low(0)
  1468  000F30  0100               	movlb	0	; () banked
  1469  000F32  0100               	movlb	0	; () banked
  1470  000F34  6F65               	movwf	(0+(?_string2screen+01h))&0ffh
  1471  000F36  0100               	movlb	0	; () banked
  1472  000F38  516B               	movf	(??_main+1+0)&0ffh,w
  1473  000F3A  0E08               	movlw	high(STR_9)
  1474  000F3C  0100               	movlb	0	; () banked
  1475  000F3E  0100               	movlb	0	; () banked
  1476  000F40  6F67               	movwf	(1+(?_string2screen+02h))&0ffh
  1477  000F42  0E00               	movlw	low(STR_9)
  1478  000F44  0100               	movlb	0	; () banked
  1479  000F46  6F66               	movwf	(0+(?_string2screen+02h))&0ffh
  1480  000F48  0100               	movlb	0	; () banked
  1481  000F4A  EC8B  F008         	call	_string2screen	;wreg free
  1482                           opt subtitle "HI-TECH Software Omniscient Code Generator (Lite mode) build 49521"
  1483                           
  1484                           opt pagewidth 120
  1485  000F4E                     l166:
  1486                           opt subtitle "HI-TECH Software Omniscient Code Generator (Lite mode) build 49521"
  1487                           
  1488                           opt pagewidth 120
  1489  000F4E                     l167:
  1490                           opt subtitle "HI-TECH Software Omniscient Code Generator (Lite mode) build 49521"
  1491  000F4E  D7FF               	goto	l166
  1492                           opt subtitle "HI-TECH Software Omniscient Code Generator (Lite mode) build 49521"
  1493  000F50                     l168:
  1494                           opt subtitle "HI-TECH Software Omniscient Code Generator (Lite mode) build 49521"
  1495                           
  1496  000F50                     l169:
  1497                           opt subtitle "HI-TECH Software Omniscient Code Generator (Lite mode) build 49521"
  1498  000F50  EF0C  F000         	goto	start
  1499                           opt subtitle "HI-TECH Software Omniscient Code Generator (Lite mode) build 49521"
  1500                           
  1501  000F54                     	__end_of_main:
  1502                           opt subtitle "HI-TECH Software Omniscient Code Generator (Lite mode) build 49521"
  1503                           
  1504                           opt pagewidth 120
  1505                           
  1506                           	opt lm
  1507                           
  1508                           	processor	18F4550
  1509                           porta	equ	0F80h
  1510                           portb	equ	0F81h
  1511                           portc	equ	0F82h
  1512                           portd	equ	0F83h
  1513                           porte	equ	0F84h
  1514                           lata	equ	0F89h
  1515                           latb	equ	0F8Ah
  1516                           latc	equ	0F8Bh
  1517                           latd	equ	0F8Ch
  1518                           late	equ	0F8Dh
  1519                           trisa	equ	0F92h
  1520                           trisb	equ	0F93h
  1521                           trisc	equ	0F94h
  1522                           trisd	equ	0F95h
  1523                           trise	equ	0F96h
  1524                           pie1	equ	0F9Dh
  1525                           pir1	equ	0F9Eh
  1526                           ipr1	equ	0F9Fh
  1527                           pie2	equ	0FA0h
  1528                           pir2	equ	0FA1h
  1529                           ipr2	equ	0FA2h
  1530                           t3con	equ	0FB1h
  1531                           tmr3l	equ	0FB2h
  1532                           tmr3h	equ	0FB3h
  1533                           ccp1con	equ	0FBDh
  1534                           ccpr1l	equ	0FBEh
  1535                           ccpr1h	equ	0FBFh
  1536                           adcon1	equ	0FC1h
  1537                           adcon0	equ	0FC2h
  1538                           adresl	equ	0FC3h
  1539                           adresh	equ	0FC4h
  1540                           sspcon2	equ	0FC5h
  1541                           sspcon1	equ	0FC6h
  1542  001116                     __ptext1:
  1543                           opt subtitle "HI-TECH Software Omniscient Code Generator (Lite mode) build 49521"
  1544                           
  1545                           opt pagewidth 120
  1546                           
  1547  0000                     	__size_of_string2screen	equ	__end_of_string2screen-_string2screen
  1548                           opt subtitle "HI-TECH Software Omniscient Code Generator (Lite mode) build 49521"
  1549  001116                     _string2screen:
  1550                           opt subtitle "HI-TECH Software Omniscient Code Generator (Lite mode) build 49521"
  1551                           
  1552                           opt pagewidth 120
  1553  001116                     l1410:
  1554                           opt subtitle "HI-TECH Software Omniscient Code Generator (Lite mode) build 49521"
  1555  001116  0100               	movlb	0	; () banked
  1556  001118  6F68               	movwf	(??_string2screen+0+0)&0ffh
  1557  00111A  0E00               	movlw	low(0)
  1558  00111C  0100               	movlb	0	; () banked
  1559  00111E  0100               	movlb	0	; () banked
  1560  001120  6F69               	movwf	((string2screen@location))&0ffh
  1561  001122  0100               	movlb	0	; () banked
  1562  001124  5168               	movf	(??_string2screen+0+0)&0ffh,w
  1563                           opt subtitle "HI-TECH Software Omniscient Code Generator (Lite mode) build 49521"
  1564                           
  1565  001126                     l1412:; BSR set to: 0
  1566                           opt subtitle "HI-TECH Software Omniscient Code Generator (Lite mode) build 49521"
  1567                           
  1568  001126  0E02               	movlw	(02h)&0ffh
  1569  001128  0100               	movlb	0	; () banked
  1570  00112A  0100               	movlb	0	; () banked
  1571  00112C  6164               	cpfslt	((string2screen@row))&0ffh
  1572  00112E  D001               	goto	u651
  1573  001130  D001               	goto	u650
  1574  001132                     u651:
  1575  001132  D00E               	goto	l1418
  1576  001134                     u650:
  1577                           opt subtitle "HI-TECH Software Omniscient Code Generator (Lite mode) build 49521"
  1578                           
  1579  001134                     l1414:; BSR set to: 0
  1580                           opt subtitle "HI-TECH Software Omniscient Code Generator (Lite mode) build 49521"
  1581                           
  1582                           opt pagewidth 120
  1583  001134  0100               	movlb	0	; () banked
  1584  001136  0100               	movlb	0	; () banked
  1585  001138  5165               	movf	((string2screen@pos))&0ffh,w
  1586  00113A  0B0F               	andlw	low(0Fh)
  1587  00113C  0980               	iorlw	low(080h)
  1588  00113E  0100               	movlb	0	; () banked
  1589  001140  0100               	movlb	0	; () banked
  1590  001142  6F69               	movwf	((string2screen@location))&0ffh
  1591                           opt subtitle "HI-TECH Software Omniscient Code Generator (Lite mode) build 49521"
  1592                           
  1593  001144                     l1416:; BSR set to: 0
  1594                           opt subtitle "HI-TECH Software Omniscient Code Generator (Lite mode) build 49521"
  1595                           
  1596  001144  C069  F060         	movff	(string2screen@location),(?_write_command)
  1597  001148  0100               	movlb	0	; () banked
  1598  00114A  EC92  F009         	call	_write_command	;wreg free
  1599                           opt subtitle "HI-TECH Software Omniscient Code Generator (Lite mode) build 49521"
  1600                           
  1601  00114E  D00E               	goto	l1422
  1602                           opt subtitle "HI-TECH Software Omniscient Code Generator (Lite mode) build 49521"
  1603                           
  1604  001150                     l115:
  1605                           opt subtitle "HI-TECH Software Omniscient Code Generator (Lite mode) build 49521"
  1606                           
  1607  001150                     l1418:
  1608                           opt subtitle "HI-TECH Software Omniscient Code Generator (Lite mode) build 49521"
  1609                           
  1610                           opt pagewidth 120
  1611  001150  0100               	movlb	0	; () banked
  1612  001152  0100               	movlb	0	; () banked
  1613  001154  5165               	movf	((string2screen@pos))&0ffh,w
  1614  001156  0B0F               	andlw	low(0Fh)
  1615  001158  09C0               	iorlw	low(0C0h)
  1616  00115A  0100               	movlb	0	; () banked
  1617  00115C  0100               	movlb	0	; () banked
  1618  00115E  6F69               	movwf	((string2screen@location))&0ffh
  1619                           opt subtitle "HI-TECH Software Omniscient Code Generator (Lite mode) build 49521"
  1620                           
  1621  001160                     l1420:; BSR set to: 0
  1622                           opt subtitle "HI-TECH Software Omniscient Code Generator (Lite mode) build 49521"
  1623                           
  1624  001160  C069  F060         	movff	(string2screen@location),(?_write_command)
  1625  001164  0100               	movlb	0	; () banked
  1626  001166  EC92  F009         	call	_write_command	;wreg free
  1627  00116A  D000               	goto	l1422
  1628                           opt subtitle "HI-TECH Software Omniscient Code Generator (Lite mode) build 49521"
  1629                           
  1630  00116C                     l116:
  1631                           opt subtitle "HI-TECH Software Omniscient Code Generator (Lite mode) build 49521"
  1632                           
  1633  00116C                     l1422:
  1634                           opt subtitle "HI-TECH Software Omniscient Code Generator (Lite mode) build 49521"
  1635                           
  1636  00116C  C066  F062         	movff	(string2screen@string),(?_proc_string)
  1637  001170  C067  F063         	movff	(string2screen@string+1),(?_proc_string+1)
  1638  001174  0100               	movlb	0	; () banked
  1639  001176  ECE9  F007         	call	_proc_string	;wreg free
  1640                           opt subtitle "HI-TECH Software Omniscient Code Generator (Lite mode) build 49521"
  1641                           
  1642  00117A                     l117:
  1643  00117A  0012               	return
  1644                           opt subtitle "HI-TECH Software Omniscient Code Generator (Lite mode) build 49521"
  1645                           
  1646  00117C                     	__end_of_string2screen:
  1647                           opt subtitle "HI-TECH Software Omniscient Code Generator (Lite mode) build 49521"
  1648                           
  1649                           opt pagewidth 120
  1650                           
  1651                           	opt lm
  1652                           
  1653                           	processor	18F4550
  1654                           porta	equ	0F80h
  1655                           portb	equ	0F81h
  1656                           portc	equ	0F82h
  1657                           portd	equ	0F83h
  1658                           porte	equ	0F84h
  1659                           lata	equ	0F89h
  1660                           latb	equ	0F8Ah
  1661                           latc	equ	0F8Bh
  1662                           latd	equ	0F8Ch
  1663                           late	equ	0F8Dh
  1664                           trisa	equ	0F92h
  1665                           trisb	equ	0F93h
  1666                           trisc	equ	0F94h
  1667                           trisd	equ	0F95h
  1668                           trise	equ	0F96h
  1669                           pie1	equ	0F9Dh
  1670                           pir1	equ	0F9Eh
  1671                           ipr1	equ	0F9Fh
  1672                           pie2	equ	0FA0h
  1673                           pir2	equ	0FA1h
  1674                           ipr2	equ	0FA2h
  1675                           t3con	equ	0FB1h
  1676                           tmr3l	equ	0FB2h
  1677                           tmr3h	equ	0FB3h
  1678                           ccp1con	equ	0FBDh
  1679                           ccpr1l	equ	0FBEh
  1680                           ccpr1h	equ	0FBFh
  1681                           adcon1	equ	0FC1h
  1682                           adcon0	equ	0FC2h
  1683                           adresl	equ	0FC3h
  1684  000FD2                     __ptext2:
  1685                           opt subtitle "HI-TECH Software Omniscient Code Generator (Lite mode) build 49521"
  1686                           
  1687                           opt pagewidth 120
  1688                           
  1689  0000                     	__size_of_proc_string	equ	__end_of_proc_string-_proc_string
  1690                           opt subtitle "HI-TECH Software Omniscient Code Generator (Lite mode) build 49521"
  1691  000FD2                     _proc_string:
  1692                           opt subtitle "HI-TECH Software Omniscient Code Generator (Lite mode) build 49521"
  1693                           
  1694                           opt pagewidth 120
  1695  000FD2                     l1402:
  1696                           opt subtitle "HI-TECH Software Omniscient Code Generator (Lite mode) build 49521"
  1697  000FD2  D01D               	goto	l1408
  1698                           opt subtitle "HI-TECH Software Omniscient Code Generator (Lite mode) build 49521"
  1699  000FD4                     l110:
  1700                           opt subtitle "HI-TECH Software Omniscient Code Generator (Lite mode) build 49521"
  1701                           
  1702  000FD4                     l1404:
  1703                           opt subtitle "HI-TECH Software Omniscient Code Generator (Lite mode) build 49521"
  1704                           
  1705  000FD4  0100               	movlb	0	; () banked
  1706  000FD6  0100               	movlb	0	; () banked
  1707  000FD8  5162               	movf	((proc_string@string))&0ffh,w
  1708  000FDA  6EF6               	movwf	tblptrl
  1709  000FDC  6EE9               	movwf	fsr0l
  1710  000FDE  0E07               	movlw	high __ramtop-1
  1711  000FE0  6EEA               	movwf	fsr0h
  1712  000FE2  0100               	movlb	0	; () banked
  1713  000FE4  0100               	movlb	0	; () banked
  1714  000FE6  5163               	movf	((proc_string@string+1))&0ffh,w
  1715  000FE8  64EA               	cpfsgt	fsr0h
  1716  000FEA  D003               	bra	u627
  1717  000FEC  6EEA               	movwf	fsr0h
  1718  000FEE  50EF               	movf	indf0,w
  1719  000FF0  D003               	bra	u620
  1720  000FF2                     u627:
  1721  000FF2  6EF7               	movwf	tblptrh
  1722  000FF4  0008               	tblrd	*
  1723                           opt subtitle "HI-TECH Software Omniscient Code Generator (Lite mode) build 49521"
  1724  000FF6  50F5               	movf	tablat,w
  1725  000FF8                     u620:
  1726  000FF8  0100               	movlb	0	; () banked
  1727  000FFA  0100               	movlb	0	; () banked
  1728  000FFC  6F60               	movwf	((?_write_char))&0ffh
  1729  000FFE  0100               	movlb	0	; () banked
  1730  001000  EC7C  F009         	call	_write_char	;wreg free
  1731                           opt subtitle "HI-TECH Software Omniscient Code Generator (Lite mode) build 49521"
  1732                           
  1733  001004                     l1406:
  1734                           opt subtitle "HI-TECH Software Omniscient Code Generator (Lite mode) build 49521"
  1735  001004  0100               	movlb	0	; () banked
  1736  001006  0100               	movlb	0	; () banked
  1737  001008  4B62               	infsnz	((proc_string@string))&0ffh
  1738  00100A  2B63               	incf	((proc_string@string+1))&0ffh
  1739  00100C  D000               	goto	l1408
  1740                           opt subtitle "HI-TECH Software Omniscient Code Generator (Lite mode) build 49521"
  1741                           
  1742  00100E                     l109:; BSR set to: 0
  1743                           opt subtitle "HI-TECH Software Omniscient Code Generator (Lite mode) build 49521"
  1744                           
  1745                           opt pagewidth 120
  1746  00100E                     l1408:
  1747  00100E  0100               	movlb	0	; () banked
  1748  001010  0100               	movlb	0	; () banked
  1749  001012  5162               	movf	((proc_string@string))&0ffh,w
  1750  001014  6EF6               	movwf	tblptrl
  1751  001016  6EE9               	movwf	fsr0l
  1752  001018  0E07               	movlw	high __ramtop-1
  1753  00101A  6EEA               	movwf	fsr0h
  1754  00101C  0100               	movlb	0	; () banked
  1755  00101E  0100               	movlb	0	; () banked
  1756  001020  5163               	movf	((proc_string@string+1))&0ffh,w
  1757  001022  64EA               	cpfsgt	fsr0h
  1758  001024  D003               	bra	u637
  1759  001026  6EEA               	movwf	fsr0h
  1760  001028  50EF               	movf	indf0,w
  1761  00102A  D003               	bra	u630
  1762  00102C                     u637:
  1763  00102C  6EF7               	movwf	tblptrh
  1764  00102E  0008               	tblrd	*
  1765                           opt subtitle "HI-TECH Software Omniscient Code Generator (Lite mode) build 49521"
  1766  001030  50F5               	movf	tablat,w
  1767  001032                     u630:
  1768  001032  0900               	iorlw	0
  1769  001034  A4D8               	btfss	status,2
  1770  001036  D001               	goto	u641
  1771  001038  D001               	goto	u640
  1772  00103A                     u641:
  1773  00103A  D7CC               	goto	l1404
  1774  00103C                     u640:
  1775  00103C  D000               	goto	l112
  1776                           opt subtitle "HI-TECH Software Omniscient Code Generator (Lite mode) build 49521"
  1777  00103E                     l111:
  1778                           opt subtitle "HI-TECH Software Omniscient Code Generator (Lite mode) build 49521"
  1779                           
  1780  00103E                     l112:
  1781  00103E  0012               	return
  1782                           opt subtitle "HI-TECH Software Omniscient Code Generator (Lite mode) build 49521"
  1783                           
  1784  001040                     	__end_of_proc_string:
  1785                           opt subtitle "HI-TECH Software Omniscient Code Generator (Lite mode) build 49521"
  1786                           
  1787                           opt pagewidth 120
  1788                           
  1789                           	opt lm
  1790                           
  1791                           	processor	18F4550
  1792                           porta	equ	0F80h
  1793                           portb	equ	0F81h
  1794                           portc	equ	0F82h
  1795                           portd	equ	0F83h
  1796                           porte	equ	0F84h
  1797                           lata	equ	0F89h
  1798                           latb	equ	0F8Ah
  1799                           latc	equ	0F8Bh
  1800                           latd	equ	0F8Ch
  1801                           late	equ	0F8Dh
  1802                           trisa	equ	0F92h
  1803                           trisb	equ	0F93h
  1804                           trisc	equ	0F94h
  1805                           trisd	equ	0F95h
  1806                           trise	equ	0F96h
  1807                           pie1	equ	0F9Dh
  1808                           pir1	equ	0F9Eh
  1809                           ipr1	equ	0F9Fh
  1810                           pie2	equ	0FA0h
  1811                           pir2	equ	0FA1h
  1812                           ipr2	equ	0FA2h
  1813                           t3con	equ	0FB1h
  1814                           tmr3l	equ	0FB2h
  1815                           tmr3h	equ	0FB3h
  1816                           ccp1con	equ	0FBDh
  1817                           ccpr1l	equ	0FBEh
  1818                           ccpr1h	equ	0FBFh
  1819  0012F8                     __ptext3:
  1820                           opt subtitle "HI-TECH Software Omniscient Code Generator (Lite mode) build 49521"
  1821                           
  1822                           opt pagewidth 120
  1823                           
  1824  0000                     	__size_of_write_char	equ	__end_of_write_char-_write_char
  1825                           opt subtitle "HI-TECH Software Omniscient Code Generator (Lite mode) build 49521"
  1826  0012F8                     _write_char:
  1827                           opt subtitle "HI-TECH Software Omniscient Code Generator (Lite mode) build 49521"
  1828                           
  1829                           opt pagewidth 120
  1830  0012F8                     l1390:
  1831                           opt subtitle "HI-TECH Software Omniscient Code Generator (Lite mode) build 49521"
  1832  0012F8  C060  FF8A         	movff	(write_char@data),(c:3978)	;volatile
  1833                           opt subtitle "HI-TECH Software Omniscient Code Generator (Lite mode) build 49521"
  1834                           
  1835  0012FC                     l1392:
  1836                           opt subtitle "HI-TECH Software Omniscient Code Generator (Lite mode) build 49521"
  1837  0012FC  C060  F061         	movff	(write_char@data),??_write_char+0+0
  1838  001300  0EC0               	movlw	0C0h
  1839  001302  0100               	movlb	0	; () banked
  1840  001304  1761               	andwf	(??_write_char+0+0)&0ffh
  1841  001306  5083               	movf	((c:3971)),c,w	;volatile
  1842  001308  0B3F               	andlw	low(03Fh)
  1843  00130A  0100               	movlb	0	; () banked
  1844  00130C  1161               	iorwf	(??_write_char+0+0)&0ffh,w
  1845  00130E  6E8C               	movwf	((c:3980)),c	;volatile
  1846                           opt subtitle "HI-TECH Software Omniscient Code Generator (Lite mode) build 49521"
  1847                           
  1848  001310                     l1394:; BSR set to: 0
  1849                           opt subtitle "HI-TECH Software Omniscient Code Generator (Lite mode) build 49521"
  1850                           
  1851  001310  808C               	bsf	c:(31840/8),(31840)&7	;volatile
  1852                           opt subtitle "HI-TECH Software Omniscient Code Generator (Lite mode) build 49521"
  1853                           
  1854  001312                     l1396:; BSR set to: 0
  1855                           opt subtitle "HI-TECH Software Omniscient Code Generator (Lite mode) build 49521"
  1856                           
  1857  001312  828C               	bsf	c:(31841/8),(31841)&7	;volatile
  1858                           opt subtitle "HI-TECH Software Omniscient Code Generator (Lite mode) build 49521"
  1859                           
  1860  001314  F000               nop ;# 
  1861                           opt subtitle "HI-TECH Software Omniscient Code Generator (Lite mode) build 49521"
  1862                           
  1863                           opt pagewidth 120
  1864  001316                     l1398:
  1865                           opt subtitle "HI-TECH Software Omniscient Code Generator (Lite mode) build 49521"
  1866  001316  928C               	bcf	c:(31841/8),(31841)&7	;volatile
  1867                           opt subtitle "HI-TECH Software Omniscient Code Generator (Lite mode) build 49521"
  1868                           
  1869  001318                     l1400:
  1870                           opt subtitle "HI-TECH Software Omniscient Code Generator (Lite mode) build 49521"
  1871  001318  0EFA               	movlw	250
  1872  00131A                     u667:
  1873  00131A  D000               	nop2
  1874  00131C  F000               	nop
  1875  00131E  2EE8               decfsz	wreg,f
  1876  001320  D7FC               	goto	u667
  1877                           opt subtitle "HI-TECH Software Omniscient Code Generator (Lite mode) build 49521"
  1878                           
  1879                           opt pagewidth 120
  1880  001322                     l106:
  1881  001322  0012               	return
  1882                           opt subtitle "HI-TECH Software Omniscient Code Generator (Lite mode) build 49521"
  1883                           
  1884  001324                     	__end_of_write_char:
  1885                           opt subtitle "HI-TECH Software Omniscient Code Generator (Lite mode) build 49521"
  1886                           
  1887                           opt pagewidth 120
  1888                           
  1889                           	opt lm
  1890                           
  1891                           	processor	18F4550
  1892                           porta	equ	0F80h
  1893                           portb	equ	0F81h
  1894                           portc	equ	0F82h
  1895                           portd	equ	0F83h
  1896                           porte	equ	0F84h
  1897                           lata	equ	0F89h
  1898                           latb	equ	0F8Ah
  1899                           latc	equ	0F8Bh
  1900                           latd	equ	0F8Ch
  1901                           late	equ	0F8Dh
  1902                           trisa	equ	0F92h
  1903                           trisb	equ	0F93h
  1904                           trisc	equ	0F94h
  1905                           trisd	equ	0F95h
  1906                           trise	equ	0F96h
  1907                           pie1	equ	0F9Dh
  1908                           pir1	equ	0F9Eh
  1909                           ipr1	equ	0F9Fh
  1910                           pie2	equ	0FA0h
  1911                           pir2	equ	0FA1h
  1912                           ipr2	equ	0FA2h
  1913                           t3con	equ	0FB1h
  1914                           tmr3l	equ	0FB2h
  1915                           tmr3h	equ	0FB3h
  1916                           ccp1con	equ	0FBDh
  1917                           ccpr1l	equ	0FBEh
  1918                           ccpr1h	equ	0FBFh
  1919  0013BA                     __ptext4:
  1920                           opt subtitle "HI-TECH Software Omniscient Code Generator (Lite mode) build 49521"
  1921                           
  1922                           opt pagewidth 120
  1923                           
  1924  0000                     	__size_of_clear_screen	equ	__end_of_clear_screen-_clear_screen
  1925                           opt subtitle "HI-TECH Software Omniscient Code Generator (Lite mode) build 49521"
  1926  0013BA                     _clear_screen:
  1927                           opt subtitle "HI-TECH Software Omniscient Code Generator (Lite mode) build 49521"
  1928                           
  1929                           opt pagewidth 120
  1930  0013BA                     l1424:
  1931                           opt subtitle "HI-TECH Software Omniscient Code Generator (Lite mode) build 49521"
  1932  0013BA  0100               	movlb	0	; () banked
  1933  0013BC  6F62               	movwf	(??_clear_screen+0+0)&0ffh
  1934  0013BE  0E01               	movlw	low(01h)
  1935  0013C0  0100               	movlb	0	; () banked
  1936  0013C2  0100               	movlb	0	; () banked
  1937  0013C4  6F60               	movwf	((?_write_command))&0ffh
  1938  0013C6  0100               	movlb	0	; () banked
  1939  0013C8  5162               	movf	(??_clear_screen+0+0)&0ffh,w
  1940  0013CA  0100               	movlb	0	; () banked
  1941  0013CC  EC92  F009         	call	_write_command	;wreg free
  1942                           opt subtitle "HI-TECH Software Omniscient Code Generator (Lite mode) build 49521"
  1943                           
  1944  0013D0                     l130:
  1945  0013D0  0012               	return
  1946                           opt subtitle "HI-TECH Software Omniscient Code Generator (Lite mode) build 49521"
  1947                           
  1948  0013D2                     	__end_of_clear_screen:
  1949                           opt subtitle "HI-TECH Software Omniscient Code Generator (Lite mode) build 49521"
  1950                           
  1951                           opt pagewidth 120
  1952                           
  1953                           	opt lm
  1954                           
  1955                           	processor	18F4550
  1956                           porta	equ	0F80h
  1957                           portb	equ	0F81h
  1958                           portc	equ	0F82h
  1959                           portd	equ	0F83h
  1960                           porte	equ	0F84h
  1961                           lata	equ	0F89h
  1962                           latb	equ	0F8Ah
  1963                           latc	equ	0F8Bh
  1964                           latd	equ	0F8Ch
  1965                           late	equ	0F8Dh
  1966                           trisa	equ	0F92h
  1967                           trisb	equ	0F93h
  1968                           trisc	equ	0F94h
  1969                           trisd	equ	0F95h
  1970                           trise	equ	0F96h
  1971                           pie1	equ	0F9Dh
  1972                           pir1	equ	0F9Eh
  1973                           ipr1	equ	0F9Fh
  1974                           pie2	equ	0FA0h
  1975                           pir2	equ	0FA1h
  1976                           ipr2	equ	0FA2h
  1977                           t3con	equ	0FB1h
  1978                           tmr3l	equ	0FB2h
  1979                           tmr3h	equ	0FB3h
  1980                           ccp1con	equ	0FBDh
  1981                           ccpr1l	equ	0FBEh
  1982                           ccpr1h	equ	0FBFh
  1983  000BAE                     __ptext5:
  1984                           opt subtitle "HI-TECH Software Omniscient Code Generator (Lite mode) build 49521"
  1985                           
  1986                           opt pagewidth 120
  1987                           
  1988  0000                     	__size_of_initialize	equ	__end_of_initialize-_initialize
  1989                           opt subtitle "HI-TECH Software Omniscient Code Generator (Lite mode) build 49521"
  1990  000BAE                     _initialize:
  1991                           opt subtitle "HI-TECH Software Omniscient Code Generator (Lite mode) build 49521"
  1992                           
  1993                           opt pagewidth 120
  1994  000BAE                     l1426:
  1995                           opt subtitle "HI-TECH Software Omniscient Code Generator (Lite mode) build 49521"
  1996  000BAE  0EF2               	movlw	low(0F2h)
  1997  000BB0  6ED3               	movwf	((c:4051)),c	;volatile
  1998                           opt subtitle "HI-TECH Software Omniscient Code Generator (Lite mode) build 49521"
  1999                           
  2000  000BB2  0E03               	movlw	low(03h)
  2001  000BB4  6E92               	movwf	((c:3986)),c	;volatile
  2002                           opt subtitle "HI-TECH Software Omniscient Code Generator (Lite mode) build 49521"
  2003                           
  2004  000BB6  0E00               	movlw	low(0)
  2005  000BB8  6E93               	movwf	((c:3987)),c	;volatile
  2006                           opt subtitle "HI-TECH Software Omniscient Code Generator (Lite mode) build 49521"
  2007                           
  2008  000BBA  0E00               	movlw	low(0)
  2009  000BBC  6E95               	movwf	((c:3989)),c	;volatile
  2010                           opt subtitle "HI-TECH Software Omniscient Code Generator (Lite mode) build 49521"
  2011                           
  2012  000BBE  0E00               	movlw	low(0)
  2013  000BC0  6E94               	movwf	((c:3988)),c	;volatile
  2014                           opt subtitle "HI-TECH Software Omniscient Code Generator (Lite mode) build 49521"
  2015                           
  2016  000BC2  0E00               	movlw	low(0)
  2017  000BC4  6E96               	movwf	((c:3990)),c	;volatile
  2018                           opt subtitle "HI-TECH Software Omniscient Code Generator (Lite mode) build 49521"
  2019                           
  2020  000BC6  0E00               	movlw	low(0)
  2021  000BC8  6E89               	movwf	((c:3977)),c	;volatile
  2022                           opt subtitle "HI-TECH Software Omniscient Code Generator (Lite mode) build 49521"
  2023                           
  2024  000BCA  0E00               	movlw	low(0)
  2025  000BCC  6E8A               	movwf	((c:3978)),c	;volatile
  2026                           opt subtitle "HI-TECH Software Omniscient Code Generator (Lite mode) build 49521"
  2027                           
  2028  000BCE  0E00               	movlw	low(0)
  2029  000BD0  6E8B               	movwf	((c:3979)),c	;volatile
  2030                           opt subtitle "HI-TECH Software Omniscient Code Generator (Lite mode) build 49521"
  2031                           
  2032  000BD2  0E00               	movlw	low(0)
  2033  000BD4  6E8C               	movwf	((c:3980)),c	;volatile
  2034                           opt subtitle "HI-TECH Software Omniscient Code Generator (Lite mode) build 49521"
  2035                           
  2036  000BD6  0E00               	movlw	low(0)
  2037  000BD8  6E8D               	movwf	((c:3981)),c	;volatile
  2038                           opt subtitle "HI-TECH Software Omniscient Code Generator (Lite mode) build 49521"
  2039                           
  2040  000BDA                     l1428:
  2041                           opt subtitle "HI-TECH Software Omniscient Code Generator (Lite mode) build 49521"
  2042  000BDA  908B               	bcf	((c:3979)),c,0	;volatile
  2043                           opt subtitle "HI-TECH Software Omniscient Code Generator (Lite mode) build 49521"
  2044                           
  2045  000BDC                     l1430:
  2046                           opt subtitle "HI-TECH Software Omniscient Code Generator (Lite mode) build 49521"
  2047  000BDC  908D               	bcf	((c:3981)),c,0	;volatile
  2048                           opt subtitle "HI-TECH Software Omniscient Code Generator (Lite mode) build 49521"
  2049                           
  2050  000BDE                     l1432:
  2051                           opt subtitle "HI-TECH Software Omniscient Code Generator (Lite mode) build 49521"
  2052  000BDE  0E68               	movlw	104
  2053  000BE0  0100               	movlb	0	; () banked
  2054  000BE2  6F62               movwf	(??_initialize+0+0)&0ffh,f
  2055  000BE4  0EE4               	movlw	228
  2056  000BE6                     u677:
  2057  000BE6  2EE8               	decfsz	wreg,f
  2058  000BE8  D7FE               	goto	u677
  2059  000BEA  2F62               	decfsz	(??_initialize+0+0)&0ffh,f
  2060  000BEC  D7FC               	goto	u677
  2061  000BEE  F000               	nop
  2062                           opt subtitle "HI-TECH Software Omniscient Code Generator (Lite mode) build 49521"
  2063                           
  2064                           opt pagewidth 120
  2065  000BF0                     l1434:
  2066                           opt subtitle "HI-TECH Software Omniscient Code Generator (Lite mode) build 49521"
  2067  000BF0  0E68               	movlw	104
  2068  000BF2  0100               	movlb	0	; () banked
  2069  000BF4  6F62               movwf	(??_initialize+0+0)&0ffh,f
  2070  000BF6  0EE4               	movlw	228
  2071  000BF8                     u687:
  2072  000BF8  2EE8               	decfsz	wreg,f
  2073  000BFA  D7FE               	goto	u687
  2074  000BFC  2F62               	decfsz	(??_initialize+0+0)&0ffh,f
  2075  000BFE  D7FC               	goto	u687
  2076  000C00  F000               	nop
  2077                           opt subtitle "HI-TECH Software Omniscient Code Generator (Lite mode) build 49521"
  2078                           
  2079                           opt pagewidth 120
  2080  000C02                     l1436:
  2081                           opt subtitle "HI-TECH Software Omniscient Code Generator (Lite mode) build 49521"
  2082  000C02  0100               	movlb	0	; () banked
  2083  000C04  6F62               	movwf	(??_initialize+0+0)&0ffh
  2084  000C06  0E38               	movlw	low(038h)
  2085  000C08  0100               	movlb	0	; () banked
  2086  000C0A  0100               	movlb	0	; () banked
  2087  000C0C  6F60               	movwf	((?_write_command))&0ffh
  2088  000C0E  0100               	movlb	0	; () banked
  2089  000C10  5162               	movf	(??_initialize+0+0)&0ffh,w
  2090  000C12  0100               	movlb	0	; () banked
  2091  000C14  EC92  F009         	call	_write_command	;wreg free
  2092                           opt subtitle "HI-TECH Software Omniscient Code Generator (Lite mode) build 49521"
  2093                           
  2094  000C18                     l1438:
  2095                           opt subtitle "HI-TECH Software Omniscient Code Generator (Lite mode) build 49521"
  2096  000C18  0100               	movlb	0	; () banked
  2097  000C1A  6F62               	movwf	(??_initialize+0+0)&0ffh
  2098  000C1C  0E06               	movlw	low(06h)
  2099  000C1E  0100               	movlb	0	; () banked
  2100  000C20  0100               	movlb	0	; () banked
  2101  000C22  6F60               	movwf	((?_write_command))&0ffh
  2102  000C24  0100               	movlb	0	; () banked
  2103  000C26  5162               	movf	(??_initialize+0+0)&0ffh,w
  2104  000C28  0100               	movlb	0	; () banked
  2105  000C2A  EC92  F009         	call	_write_command	;wreg free
  2106                           opt subtitle "HI-TECH Software Omniscient Code Generator (Lite mode) build 49521"
  2107                           
  2108  000C2E                     l1440:
  2109                           opt subtitle "HI-TECH Software Omniscient Code Generator (Lite mode) build 49521"
  2110  000C2E  0100               	movlb	0	; () banked
  2111  000C30  6F62               	movwf	(??_initialize+0+0)&0ffh
  2112  000C32  0E0C               	movlw	low(0Ch)
  2113  000C34  0100               	movlb	0	; () banked
  2114  000C36  0100               	movlb	0	; () banked
  2115  000C38  6F60               	movwf	((?_write_command))&0ffh
  2116  000C3A  0100               	movlb	0	; () banked
  2117  000C3C  5162               	movf	(??_initialize+0+0)&0ffh,w
  2118  000C3E  0100               	movlb	0	; () banked
  2119  000C40  EC92  F009         	call	_write_command	;wreg free
  2120                           opt subtitle "HI-TECH Software Omniscient Code Generator (Lite mode) build 49521"
  2121                           
  2122  000C44                     l1442:
  2123                           opt subtitle "HI-TECH Software Omniscient Code Generator (Lite mode) build 49521"
  2124  000C44  0E00               	movlw	low(0)
  2125  000C46  6EC2               	movwf	((c:4034)),c	;volatile
  2126                           opt subtitle "HI-TECH Software Omniscient Code Generator (Lite mode) build 49521"
  2127                           
  2128  000C48                     l1444:
  2129                           opt subtitle "HI-TECH Software Omniscient Code Generator (Lite mode) build 49521"
  2130  000C48  0E0E               	movlw	low(0Eh)
  2131  000C4A  6EC1               	movwf	((c:4033)),c	;volatile
  2132                           opt subtitle "HI-TECH Software Omniscient Code Generator (Lite mode) build 49521"
  2133                           
  2134  000C4C                     l1446:
  2135                           opt subtitle "HI-TECH Software Omniscient Code Generator (Lite mode) build 49521"
  2136  000C4C  0E36               	movlw	low(036h)
  2137  000C4E  6EC0               	movwf	((c:4032)),c	;volatile
  2138                           opt subtitle "HI-TECH Software Omniscient Code Generator (Lite mode) build 49521"
  2139                           
  2140  000C50                     l1448:
  2141                           opt subtitle "HI-TECH Software Omniscient Code Generator (Lite mode) build 49521"
  2142  000C50  80C2               	bsf	((c:4034)),c,0	;volatile
  2143                           opt subtitle "HI-TECH Software Omniscient Code Generator (Lite mode) build 49521"
  2144                           
  2145  000C52                     l1450:
  2146                           opt subtitle "HI-TECH Software Omniscient Code Generator (Lite mode) build 49521"
  2147  000C52  8C9D               	bsf	((c:3997)),c,6	;volatile
  2148                           opt subtitle "HI-TECH Software Omniscient Code Generator (Lite mode) build 49521"
  2149                           
  2150  000C54                     l1452:
  2151                           opt subtitle "HI-TECH Software Omniscient Code Generator (Lite mode) build 49521"
  2152  000C54  96D5               	bcf	((c:4053)),c,3	;volatile
  2153                           opt subtitle "HI-TECH Software Omniscient Code Generator (Lite mode) build 49521"
  2154                           
  2155  000C56                     l1454:
  2156                           opt subtitle "HI-TECH Software Omniscient Code Generator (Lite mode) build 49521"
  2157  000C56  94D5               	bcf	((c:4053)),c,2	;volatile
  2158                           opt subtitle "HI-TECH Software Omniscient Code Generator (Lite mode) build 49521"
  2159                           
  2160  000C58                     l1456:
  2161                           opt subtitle "HI-TECH Software Omniscient Code Generator (Lite mode) build 49521"
  2162  000C58  82D5               	bsf	((c:4053)),c,1	;volatile
  2163                           opt subtitle "HI-TECH Software Omniscient Code Generator (Lite mode) build 49521"
  2164                           
  2165  000C5A                     l1458:
  2166                           opt subtitle "HI-TECH Software Omniscient Code Generator (Lite mode) build 49521"
  2167  000C5A  90D5               	bcf	((c:4053)),c,0	;volatile
  2168                           opt subtitle "HI-TECH Software Omniscient Code Generator (Lite mode) build 49521"
  2169                           
  2170  000C5C                     l1460:
  2171                           opt subtitle "HI-TECH Software Omniscient Code Generator (Lite mode) build 49521"
  2172  000C5C  9AD5               	bcf	((c:4053)),c,5	;volatile
  2173                           opt subtitle "HI-TECH Software Omniscient Code Generator (Lite mode) build 49521"
  2174                           
  2175  000C5E                     l1462:
  2176                           opt subtitle "HI-TECH Software Omniscient Code Generator (Lite mode) build 49521"
  2177  000C5E  9CD5               	bcf	((c:4053)),c,6	;volatile
  2178                           opt subtitle "HI-TECH Software Omniscient Code Generator (Lite mode) build 49521"
  2179                           
  2180  000C60                     l1464:
  2181                           opt subtitle "HI-TECH Software Omniscient Code Generator (Lite mode) build 49521"
  2182  000C60  8AF2               	bsf	((c:4082)),c,5	;volatile
  2183                           opt subtitle "HI-TECH Software Omniscient Code Generator (Lite mode) build 49521"
  2184                           
  2185  000C62                     l1466:
  2186                           opt subtitle "HI-TECH Software Omniscient Code Generator (Lite mode) build 49521"
  2187  000C62  94F2               	bcf	((c:4082)),c,2	;volatile
  2188                           opt subtitle "HI-TECH Software Omniscient Code Generator (Lite mode) build 49521"
  2189                           
  2190  000C64                     l1468:
  2191                           opt subtitle "HI-TECH Software Omniscient Code Generator (Lite mode) build 49521"
  2192  000C64  0EB1               	movlw	low(0B1h)
  2193  000C66  6ED7               	movwf	((c:4055)),c	;volatile
  2194                           opt subtitle "HI-TECH Software Omniscient Code Generator (Lite mode) build 49521"
  2195                           
  2196  000C68                     l1470:
  2197                           opt subtitle "HI-TECH Software Omniscient Code Generator (Lite mode) build 49521"
  2198  000C68  0EE0               	movlw	low(0E0h)
  2199  000C6A  6ED6               	movwf	((c:4054)),c	;volatile
  2200                           opt subtitle "HI-TECH Software Omniscient Code Generator (Lite mode) build 49521"
  2201                           
  2202  000C6C                     l1472:
  2203                           opt subtitle "HI-TECH Software Omniscient Code Generator (Lite mode) build 49521"
  2204  000C6C  8ED5               	bsf	((c:4053)),c,7	;volatile
  2205                           opt subtitle "HI-TECH Software Omniscient Code Generator (Lite mode) build 49521"
  2206                           
  2207  000C6E                     l1474:
  2208                           opt subtitle "HI-TECH Software Omniscient Code Generator (Lite mode) build 49521"
  2209  000C6E  8ACD               	bsf	((c:4045)),c,5	;volatile
  2210                           opt subtitle "HI-TECH Software Omniscient Code Generator (Lite mode) build 49521"
  2211                           
  2212  000C70                     l1476:
  2213                           opt subtitle "HI-TECH Software Omniscient Code Generator (Lite mode) build 49521"
  2214  000C70  88CD               	bsf	((c:4045)),c,4	;volatile
  2215                           opt subtitle "HI-TECH Software Omniscient Code Generator (Lite mode) build 49521"
  2216                           
  2217  000C72                     l1478:
  2218                           opt subtitle "HI-TECH Software Omniscient Code Generator (Lite mode) build 49521"
  2219  000C72  96CD               	bcf	((c:4045)),c,3	;volatile
  2220                           opt subtitle "HI-TECH Software Omniscient Code Generator (Lite mode) build 49521"
  2221                           
  2222  000C74                     l1480:
  2223                           opt subtitle "HI-TECH Software Omniscient Code Generator (Lite mode) build 49521"
  2224  000C74  92CD               	bcf	((c:4045)),c,1	;volatile
  2225                           opt subtitle "HI-TECH Software Omniscient Code Generator (Lite mode) build 49521"
  2226                           
  2227  000C76                     l1482:
  2228                           opt subtitle "HI-TECH Software Omniscient Code Generator (Lite mode) build 49521"
  2229  000C76  0E00               	movlw	low(0)
  2230  000C78  6ECF               	movwf	((c:4047)),c	;volatile
  2231                           opt subtitle "HI-TECH Software Omniscient Code Generator (Lite mode) build 49521"
  2232                           
  2233  000C7A                     l1484:
  2234                           opt subtitle "HI-TECH Software Omniscient Code Generator (Lite mode) build 49521"
  2235  000C7A  0E00               	movlw	low(0)
  2236  000C7C  6ECE               	movwf	((c:4046)),c	;volatile
  2237                           opt subtitle "HI-TECH Software Omniscient Code Generator (Lite mode) build 49521"
  2238                           
  2239  000C7E                     l1486:
  2240                           opt subtitle "HI-TECH Software Omniscient Code Generator (Lite mode) build 49521"
  2241  000C7E  909E               	bcf	((c:3998)),c,0	;volatile
  2242                           opt subtitle "HI-TECH Software Omniscient Code Generator (Lite mode) build 49521"
  2243                           
  2244  000C80                     l1488:
  2245                           opt subtitle "HI-TECH Software Omniscient Code Generator (Lite mode) build 49521"
  2246  000C80  809D               	bsf	((c:3997)),c,0	;volatile
  2247                           opt subtitle "HI-TECH Software Omniscient Code Generator (Lite mode) build 49521"
  2248                           
  2249  000C82                     l1490:
  2250                           opt subtitle "HI-TECH Software Omniscient Code Generator (Lite mode) build 49521"
  2251  000C82  80CD               	bsf	((c:4045)),c,0	;volatile
  2252                           opt subtitle "HI-TECH Software Omniscient Code Generator (Lite mode) build 49521"
  2253                           
  2254  000C84                     l1492:
  2255                           opt subtitle "HI-TECH Software Omniscient Code Generator (Lite mode) build 49521"
  2256  000C84  8CF2               	bsf	((c:4082)),c,6	;volatile
  2257                           opt subtitle "HI-TECH Software Omniscient Code Generator (Lite mode) build 49521"
  2258                           
  2259  000C86                     l1494:
  2260                           opt subtitle "HI-TECH Software Omniscient Code Generator (Lite mode) build 49521"
  2261  000C86  8EF2               	bsf	((c:4082)),c,7	;volatile
  2262                           opt subtitle "HI-TECH Software Omniscient Code Generator (Lite mode) build 49521"
  2263                           
  2264  000C88                     l133:
  2265  000C88  0012               	return
  2266                           opt subtitle "HI-TECH Software Omniscient Code Generator (Lite mode) build 49521"
  2267                           
  2268  000C8A                     	__end_of_initialize:
  2269                           opt subtitle "HI-TECH Software Omniscient Code Generator (Lite mode) build 49521"
  2270                           
  2271                           opt pagewidth 120
  2272                           
  2273                           	opt lm
  2274                           
  2275                           	processor	18F4550
  2276                           porta	equ	0F80h
  2277                           portb	equ	0F81h
  2278                           portc	equ	0F82h
  2279                           portd	equ	0F83h
  2280                           porte	equ	0F84h
  2281                           lata	equ	0F89h
  2282                           latb	equ	0F8Ah
  2283                           latc	equ	0F8Bh
  2284                           latd	equ	0F8Ch
  2285                           late	equ	0F8Dh
  2286                           trisa	equ	0F92h
  2287                           trisb	equ	0F93h
  2288                           trisc	equ	0F94h
  2289                           trisd	equ	0F95h
  2290                           trise	equ	0F96h
  2291                           pie1	equ	0F9Dh
  2292                           pir1	equ	0F9Eh
  2293                           ipr1	equ	0F9Fh
  2294                           pie2	equ	0FA0h
  2295                           pir2	equ	0FA1h
  2296                           ipr2	equ	0FA2h
  2297                           t3con	equ	0FB1h
  2298                           tmr3l	equ	0FB2h
  2299                           tmr3h	equ	0FB3h
  2300                           ccp1con	equ	0FBDh
  2301                           ccpr1l	equ	0FBEh
  2302                           ccpr1h	equ	0FBFh
  2303                           adcon1	equ	0FC1h
  2304                           adcon0	equ	0FC2h
  2305  001324                     __ptext6:
  2306                           opt subtitle "HI-TECH Software Omniscient Code Generator (Lite mode) build 49521"
  2307                           
  2308                           opt pagewidth 120
  2309                           
  2310  0000                     	__size_of_write_command	equ	__end_of_write_command-_write_command
  2311                           opt subtitle "HI-TECH Software Omniscient Code Generator (Lite mode) build 49521"
  2312  001324                     _write_command:
  2313                           opt subtitle "HI-TECH Software Omniscient Code Generator (Lite mode) build 49521"
  2314                           
  2315                           opt pagewidth 120
  2316  001324                     l1378:
  2317                           opt subtitle "HI-TECH Software Omniscient Code Generator (Lite mode) build 49521"
  2318  001324  C060  FF8A         	movff	(write_command@data),(c:3978)	;volatile
  2319                           opt subtitle "HI-TECH Software Omniscient Code Generator (Lite mode) build 49521"
  2320                           
  2321  001328                     l1380:
  2322                           opt subtitle "HI-TECH Software Omniscient Code Generator (Lite mode) build 49521"
  2323  001328  C060  F061         	movff	(write_command@data),??_write_command+0+0
  2324  00132C  0EC0               	movlw	0C0h
  2325  00132E  0100               	movlb	0	; () banked
  2326  001330  1761               	andwf	(??_write_command+0+0)&0ffh
  2327  001332  5083               	movf	((c:3971)),c,w	;volatile
  2328  001334  0B3F               	andlw	low(03Fh)
  2329  001336  0100               	movlb	0	; () banked
  2330  001338  1161               	iorwf	(??_write_command+0+0)&0ffh,w
  2331  00133A  6E8C               	movwf	((c:3980)),c	;volatile
  2332                           opt subtitle "HI-TECH Software Omniscient Code Generator (Lite mode) build 49521"
  2333                           
  2334  00133C                     l1382:; BSR set to: 0
  2335                           opt subtitle "HI-TECH Software Omniscient Code Generator (Lite mode) build 49521"
  2336                           
  2337  00133C  908C               	bcf	c:(31840/8),(31840)&7	;volatile
  2338                           opt subtitle "HI-TECH Software Omniscient Code Generator (Lite mode) build 49521"
  2339                           
  2340  00133E                     l1384:; BSR set to: 0
  2341                           opt subtitle "HI-TECH Software Omniscient Code Generator (Lite mode) build 49521"
  2342                           
  2343  00133E  828C               	bsf	c:(31841/8),(31841)&7	;volatile
  2344                           opt subtitle "HI-TECH Software Omniscient Code Generator (Lite mode) build 49521"
  2345                           
  2346  001340  F000               nop ;# 
  2347                           opt subtitle "HI-TECH Software Omniscient Code Generator (Lite mode) build 49521"
  2348                           
  2349                           opt pagewidth 120
  2350  001342                     l1386:
  2351                           opt subtitle "HI-TECH Software Omniscient Code Generator (Lite mode) build 49521"
  2352  001342  928C               	bcf	c:(31841/8),(31841)&7	;volatile
  2353                           opt subtitle "HI-TECH Software Omniscient Code Generator (Lite mode) build 49521"
  2354                           
  2355  001344                     l1388:
  2356                           opt subtitle "HI-TECH Software Omniscient Code Generator (Lite mode) build 49521"
  2357  001344  0EFA               	movlw	250
  2358  001346                     u697:
  2359  001346  D000               	nop2
  2360  001348  F000               	nop
  2361  00134A  2EE8               decfsz	wreg,f
  2362  00134C  D7FC               	goto	u697
  2363                           opt subtitle "HI-TECH Software Omniscient Code Generator (Lite mode) build 49521"
  2364                           
  2365                           opt pagewidth 120
  2366  00134E                     l103:
  2367  00134E  0012               	return
  2368                           opt subtitle "HI-TECH Software Omniscient Code Generator (Lite mode) build 49521"
  2369                           
  2370  001350                     	__end_of_write_command:
  2371                           opt subtitle "HI-TECH Software Omniscient Code Generator (Lite mode) build 49521"
  2372                           
  2373                           opt pagewidth 120
  2374                           
  2375                           	opt lm
  2376                           
  2377                           	processor	18F4550
  2378                           porta	equ	0F80h
  2379                           portb	equ	0F81h
  2380                           portc	equ	0F82h
  2381                           portd	equ	0F83h
  2382                           porte	equ	0F84h
  2383                           lata	equ	0F89h
  2384                           latb	equ	0F8Ah
  2385                           latc	equ	0F8Bh
  2386                           latd	equ	0F8Ch
  2387                           late	equ	0F8Dh
  2388                           trisa	equ	0F92h
  2389                           trisb	equ	0F93h
  2390                           trisc	equ	0F94h
  2391                           trisd	equ	0F95h
  2392                           trise	equ	0F96h
  2393                           pie1	equ	0F9Dh
  2394                           pir1	equ	0F9Eh
  2395                           ipr1	equ	0F9Fh
  2396                           pie2	equ	0FA0h
  2397                           pir2	equ	0FA1h
  2398                           ipr2	equ	0FA2h
  2399                           t3con	equ	0FB1h
  2400                           tmr3l	equ	0FB2h
  2401                           tmr3h	equ	0FB3h
  2402                           ccp1con	equ	0FBDh
  2403                           ccpr1l	equ	0FBEh
  2404                           ccpr1h	equ	0FBFh
  2405                           adcon1	equ	0FC1h
  2406                           adcon0	equ	0FC2h
  2407                           adresl	equ	0FC3h
  2408                           adresh	equ	0FC4h
  2409                           sspcon2	equ	0FC5h
  2410  000008                     __pintcode:
  2411                           opt subtitle "HI-TECH Software Omniscient Code Generator (Lite mode) build 49521"
  2412                           
  2413                           opt pagewidth 120
  2414                           
  2415  0000                     	__size_of_isr	equ	__end_of_isr-_isr
  2416                           opt subtitle "HI-TECH Software Omniscient Code Generator (Lite mode) build 49521"
  2417  000008                     _isr:
  2418                           opt subtitle "HI-TECH Software Omniscient Code Generator (Lite mode) build 49521"
  2419  000008  CFFA F02F          	movff	pclat+0,??_isr+2
  2420  00000C  CFFB F030          	movff	pclat+1,??_isr+3
  2421  000010  CFE9 F031          	movff	fsr0l+0,??_isr+4
  2422                           opt subtitle "HI-TECH Software Omniscient Code Generator (Lite mode) build 49521"
  2423  000014  ED2B  F004         	call	int_func,f	;refresh shadow registers
  2424                           opt subtitle "HI-TECH Software Omniscient Code Generator (Lite mode) build 49521"
  2425                           
  2426  000856                     __pintcode_body:
  2427  000856                     int_func:
  2428                           opt subtitle "HI-TECH Software Omniscient Code Generator (Lite mode) build 49521"
  2429  000856  0006               	pop	; remove dummy address from shadow register refresh
  2430  000858  CFEA F032          	movff	fsr0h+0,??_isr+5
  2431  00085C  CFE1 F033          	movff	fsr1l+0,??_isr+6
  2432  000860  CFE2 F034          	movff	fsr1h+0,??_isr+7
  2433  000864  CFD9 F035          	movff	fsr2l+0,??_isr+8
  2434  000868  CFDA F036          	movff	fsr2h+0,??_isr+9
  2435  00086C  CFF3 F037          	movff	prodl+0,??_isr+10
  2436  000870  CFF4 F038          	movff	prodh+0,??_isr+11
  2437  000874  CFF6 F039          	movff	tblptrl+0,??_isr+12
  2438  000878  CFF7 F03A          	movff	tblptrh+0,??_isr+13
  2439  00087C  CFF8 F03B          	movff	tblptru+0,??_isr+14
  2440  000880  CFF5 F03C          	movff	tablat+0,??_isr+15
  2441                           opt subtitle "HI-TECH Software Omniscient Code Generator (Lite mode) build 49521"
  2442                           
  2443  000884                     i2l1298:
  2444                           opt subtitle "HI-TECH Software Omniscient Code Generator (Lite mode) build 49521"
  2445                           
  2446                           opt pagewidth 120
  2447                           
  2448                           	opt lm
  2449  000884  A4F2               	btfss	((c:4082)),c,2	;volatile
  2450  000886  D001               	goto	i2u41_41
  2451  000888  D001               	goto	i2u41_40
  2452  00088A                     i2u41_41:
  2453  00088A  D038               	goto	i2l143
  2454  00088C                     i2u41_40:
  2455                           opt subtitle "HI-TECH Software Omniscient Code Generator (Lite mode) build 49521"
  2456                           
  2457  00088C                     i2l1300:
  2458                           opt subtitle "HI-TECH Software Omniscient Code Generator (Lite mode) build 49521"
  2459                           
  2460  00088C  0EB1               	movlw	low(0B1h)
  2461  00088E  6ED7               	movwf	((c:4055)),c	;volatile
  2462                           opt subtitle "HI-TECH Software Omniscient Code Generator (Lite mode) build 49521"
  2463                           
  2464  000890  0EE0               	movlw	low(0E0h)
  2465  000892  6ED6               	movwf	((c:4054)),c	;volatile
  2466                           opt subtitle "HI-TECH Software Omniscient Code Generator (Lite mode) build 49521"
  2467                           
  2468  000894                     i2l1302:
  2469                           opt subtitle "HI-TECH Software Omniscient Code Generator (Lite mode) build 49521"
  2470  000894  C041  F001         	movff	(c:_CUR_POTVAL),(c:?_led_bar)
  2471  000898  C042  F002         	movff	(c:_CUR_POTVAL+1),(c:?_led_bar+1)
  2472  00089C  EC45  F006         	call	_led_bar	;wreg free
  2473                           opt subtitle "HI-TECH Software Omniscient Code Generator (Lite mode) build 49521"
  2474                           
  2475  0008A0                     i2l1304:
  2476                           opt subtitle "HI-TECH Software Omniscient Code Generator (Lite mode) build 49521"
  2477  0008A0  5048               	movf	((c:_ISRUNNING+1)),c,w
  2478  0008A2  1047               	iorwf ((c:_ISRUNNING)),c,w
  2479                           opt subtitle "HI-TECH Software Omniscient Code Generator (Lite mode) build 49521"
  2480  0008A4  B4D8               	btfsc	status,2
  2481  0008A6  D001               	goto	i2u42_41
  2482  0008A8  D001               	goto	i2u42_40
  2483  0008AA                     i2u42_41:
  2484  0008AA  D020               	goto	i2l1316
  2485  0008AC                     i2u42_40:
  2486                           opt subtitle "HI-TECH Software Omniscient Code Generator (Lite mode) build 49521"
  2487  0008AC                     i2l1306:
  2488  0008AC  503E               	movf	((c:_BURN_TIME+1)),c,w
  2489  0008AE  0A80               	xorlw	80h
  2490  0008B0  0F80               	addlw	-((0)^80h)
  2491  0008B2  0E01               	movlw	01h
  2492  0008B4  B4D8               	btfsc	status,2
  2493  0008B6  5C3D               	subwf	((c:_BURN_TIME)),c,w
  2494  0008B8  A0D8               	btfss	status,0
  2495  0008BA  D001               	goto	i2u43_41
  2496  0008BC  D001               	goto	i2u43_40
  2497  0008BE                     i2u43_41:
  2498  0008BE  D016               	goto	i2l1316
  2499  0008C0                     i2u43_40:
  2500                           opt subtitle "HI-TECH Software Omniscient Code Generator (Lite mode) build 49521"
  2501                           
  2502  0008C0                     i2l1308:
  2503                           opt subtitle "HI-TECH Software Omniscient Code Generator (Lite mode) build 49521"
  2504                           
  2505  0008C0  5040               	movf	((c:_COOK_COUNT+1)),c,w	;volatile
  2506  0008C2  103F               	iorwf ((c:_COOK_COUNT)),c,w	;volatile
  2507                           opt subtitle "HI-TECH Software Omniscient Code Generator (Lite mode) build 49521"
  2508  0008C4  A4D8               	btfss	status,2
  2509  0008C6  D001               	goto	i2u44_41
  2510  0008C8  D001               	goto	i2u44_40
  2511  0008CA                     i2u44_41:
  2512  0008CA  D007               	goto	i2l1312
  2513  0008CC                     i2u44_40:
  2514                           opt subtitle "HI-TECH Software Omniscient Code Generator (Lite mode) build 49521"
  2515                           
  2516  0008CC                     i2l1310:
  2517                           opt subtitle "HI-TECH Software Omniscient Code Generator (Lite mode) build 49521"
  2518                           
  2519  0008CC  6E2D               	movwf	(??_isr+0+0)&0ffh,c
  2520  0008CE  0E00               	movlw	low(0)
  2521  0008D0  6E1A               	movwf	((c:?_control_relay)),c
  2522  0008D2  502D               	movf	(??_isr+0+0)&0ffh,c,w
  2523  0008D4  EC57  F005         	call	_control_relay	;wreg free
  2524  0008D8  D000               	goto	i2l1312
  2525                           opt subtitle "HI-TECH Software Omniscient Code Generator (Lite mode) build 49521"
  2526                           
  2527  0008DA                     i2l145:
  2528                           opt subtitle "HI-TECH Software Omniscient Code Generator (Lite mode) build 49521"
  2529                           
  2530  0008DA                     i2l1312:
  2531                           opt subtitle "HI-TECH Software Omniscient Code Generator (Lite mode) build 49521"
  2532                           
  2533  0008DA  BE40               	btfsc	((c:_COOK_COUNT+1)),c,7	;volatile
  2534  0008DC  D001               	goto	i2u45_41
  2535  0008DE  D001               	goto	i2u45_40
  2536  0008E0                     i2u45_41:
  2537  0008E0  D005               	goto	i2l1316
  2538  0008E2                     i2u45_40:
  2539                           opt subtitle "HI-TECH Software Omniscient Code Generator (Lite mode) build 49521"
  2540                           
  2541  0008E2                     i2l1314:
  2542                           opt subtitle "HI-TECH Software Omniscient Code Generator (Lite mode) build 49521"
  2543                           
  2544  0008E2  063F               	decf	((c:_COOK_COUNT)),c	;volatile
  2545  0008E4  A0D8               	btfss	status,0
  2546  0008E6  0640               	decf	((c:_COOK_COUNT+1)),c	;volatile
  2547  0008E8  D001               	goto	i2l1316
  2548                           opt subtitle "HI-TECH Software Omniscient Code Generator (Lite mode) build 49521"
  2549                           
  2550  0008EA                     i2l146:
  2551  0008EA  D000               	goto	i2l1316
  2552                           opt subtitle "HI-TECH Software Omniscient Code Generator (Lite mode) build 49521"
  2553                           
  2554  0008EC                     i2l144:
  2555                           opt subtitle "HI-TECH Software Omniscient Code Generator (Lite mode) build 49521"
  2556                           
  2557  0008EC                     i2l1316:
  2558                           opt subtitle "HI-TECH Software Omniscient Code Generator (Lite mode) build 49521"
  2559                           
  2560                           opt pagewidth 120
  2561  0008EC  5048               	movf	((c:_ISRUNNING+1)),c,w
  2562  0008EE  1047               	iorwf ((c:_ISRUNNING)),c,w
  2563                           opt subtitle "HI-TECH Software Omniscient Code Generator (Lite mode) build 49521"
  2564  0008F0  A4D8               	btfss	status,2
  2565  0008F2  D001               	goto	i2u46_41
  2566  0008F4  D001               	goto	i2u46_40
  2567  0008F6                     i2u46_41:
  2568  0008F6  D001               	goto	i2l147
  2569  0008F8                     i2u46_40:
  2570                           opt subtitle "HI-TECH Software Omniscient Code Generator (Lite mode) build 49521"
  2571                           
  2572  0008F8                     i2l1318:
  2573                           opt subtitle "HI-TECH Software Omniscient Code Generator (Lite mode) build 49521"
  2574  0008F8  82C2               	bsf	((c:4034)),c,1	;volatile
  2575                           opt subtitle "HI-TECH Software Omniscient Code Generator (Lite mode) build 49521"
  2576  0008FA                     i2l147:
  2577                           opt subtitle "HI-TECH Software Omniscient Code Generator (Lite mode) build 49521"
  2578                           
  2579  0008FA  94F2               	bcf	((c:4082)),c,2	;volatile
  2580                           opt subtitle "HI-TECH Software Omniscient Code Generator (Lite mode) build 49521"
  2581                           
  2582  0008FC                     i2l143:
  2583                           opt subtitle "HI-TECH Software Omniscient Code Generator (Lite mode) build 49521"
  2584                           
  2585                           opt pagewidth 120
  2586                           
  2587  0008FC  A09E               	btfss	((c:3998)),c,0	;volatile
  2588  0008FE  D001               	goto	i2u47_41
  2589  000900  D001               	goto	i2u47_40
  2590  000902                     i2u47_41:
  2591  000902  D0AF               	goto	i2l1374
  2592  000904                     i2u47_40:
  2593                           opt subtitle "HI-TECH Software Omniscient Code Generator (Lite mode) build 49521"
  2594                           
  2595  000904                     i2l1320:
  2596                           opt subtitle "HI-TECH Software Omniscient Code Generator (Lite mode) build 49521"
  2597                           
  2598  000904  0E00               	movlw	low(0)
  2599  000906  6ECE               	movwf	((c:4046)),c	;volatile
  2600                           opt subtitle "HI-TECH Software Omniscient Code Generator (Lite mode) build 49521"
  2601                           
  2602  000908  0E00               	movlw	low(0)
  2603  00090A  6ECF               	movwf	((c:4047)),c	;volatile
  2604                           opt subtitle "HI-TECH Software Omniscient Code Generator (Lite mode) build 49521"
  2605                           
  2606  00090C                     i2l1322:
  2607                           opt subtitle "HI-TECH Software Omniscient Code Generator (Lite mode) build 49521"
  2608  00090C  5048               	movf	((c:_ISRUNNING+1)),c,w
  2609  00090E  1047               	iorwf ((c:_ISRUNNING)),c,w
  2610                           opt subtitle "HI-TECH Software Omniscient Code Generator (Lite mode) build 49521"
  2611  000910  B4D8               	btfsc	status,2
  2612  000912  D001               	goto	i2u48_41
  2613  000914  D001               	goto	i2u48_40
  2614  000916                     i2u48_41:
  2615  000916  D00D               	goto	i2l1328
  2616  000918                     i2u48_40:
  2617                           opt subtitle "HI-TECH Software Omniscient Code Generator (Lite mode) build 49521"
  2618  000918                     i2l1324:
  2619  000918  503E               	movf	((c:_BURN_TIME+1)),c,w
  2620  00091A  0A80               	xorlw	80h
  2621  00091C  0F80               	addlw	-((0)^80h)
  2622  00091E  0E01               	movlw	01h
  2623  000920  B4D8               	btfsc	status,2
  2624  000922  5C3D               	subwf	((c:_BURN_TIME)),c,w
  2625  000924  A0D8               	btfss	status,0
  2626  000926  D001               	goto	i2u49_41
  2627  000928  D001               	goto	i2u49_40
  2628  00092A                     i2u49_41:
  2629  00092A  D003               	goto	i2l1328
  2630  00092C                     i2u49_40:
  2631                           opt subtitle "HI-TECH Software Omniscient Code Generator (Lite mode) build 49521"
  2632                           
  2633  00092C                     i2l1326:
  2634                           opt subtitle "HI-TECH Software Omniscient Code Generator (Lite mode) build 49521"
  2635  00092C  EC56  F008         	call	_update_lcd_timer	;wreg free
  2636  000930  D000               	goto	i2l1328
  2637                           opt subtitle "HI-TECH Software Omniscient Code Generator (Lite mode) build 49521"
  2638  000932                     i2l149:
  2639                           opt subtitle "HI-TECH Software Omniscient Code Generator (Lite mode) build 49521"
  2640                           
  2641  000932                     i2l1328:
  2642                           opt subtitle "HI-TECH Software Omniscient Code Generator (Lite mode) build 49521"
  2643  000932  BE44               	btfsc	((c:_DISP_TIMER1+1)),c,7	;volatile
  2644  000934  D001               	goto	i2u50_41
  2645  000936  D001               	goto	i2u50_40
  2646  000938                     i2u50_41:
  2647  000938  D004               	goto	i2l150
  2648  00093A                     i2u50_40:
  2649                           opt subtitle "HI-TECH Software Omniscient Code Generator (Lite mode) build 49521"
  2650                           
  2651  00093A                     i2l1330:
  2652                           opt subtitle "HI-TECH Software Omniscient Code Generator (Lite mode) build 49521"
  2653  00093A  0643               	decf	((c:_DISP_TIMER1)),c	;volatile
  2654  00093C  A0D8               	btfss	status,0
  2655  00093E  0644               	decf	((c:_DISP_TIMER1+1)),c	;volatile
  2656  000940  D00D               	goto	i2l1336
  2657                           opt subtitle "HI-TECH Software Omniscient Code Generator (Lite mode) build 49521"
  2658                           
  2659  000942                     i2l150:
  2660                           opt subtitle "HI-TECH Software Omniscient Code Generator (Lite mode) build 49521"
  2661  000942  AE44               	btfss	((c:_DISP_TIMER1+1)),c,7	;volatile
  2662  000944  D001               	goto	i2u51_41
  2663  000946  D001               	goto	i2u51_40
  2664  000948                     i2u51_41:
  2665  000948  D009               	goto	i2l1336
  2666  00094A                     i2u51_40:
  2667                           opt subtitle "HI-TECH Software Omniscient Code Generator (Lite mode) build 49521"
  2668  00094A                     i2l1332:
  2669  00094A  BE46               	btfsc	((c:_DISP_TIMER2+1)),c,7	;volatile
  2670  00094C  D001               	goto	i2u52_41
  2671  00094E  D001               	goto	i2u52_40
  2672  000950                     i2u52_41:
  2673  000950  D005               	goto	i2l1336
  2674  000952                     i2u52_40:
  2675                           opt subtitle "HI-TECH Software Omniscient Code Generator (Lite mode) build 49521"
  2676                           
  2677  000952                     i2l1334:
  2678                           opt subtitle "HI-TECH Software Omniscient Code Generator (Lite mode) build 49521"
  2679  000952  0645               	decf	((c:_DISP_TIMER2)),c	;volatile
  2680  000954  A0D8               	btfss	status,0
  2681  000956  0646               	decf	((c:_DISP_TIMER2+1)),c	;volatile
  2682  000958  D001               	goto	i2l1336
  2683                           opt subtitle "HI-TECH Software Omniscient Code Generator (Lite mode) build 49521"
  2684  00095A                     i2l152:
  2685  00095A  D000               	goto	i2l1336
  2686                           opt subtitle "HI-TECH Software Omniscient Code Generator (Lite mode) build 49521"
  2687                           
  2688  00095C                     i2l151:
  2689                           opt subtitle "HI-TECH Software Omniscient Code Generator (Lite mode) build 49521"
  2690  00095C                     i2l1336:
  2691                           opt subtitle "HI-TECH Software Omniscient Code Generator (Lite mode) build 49521"
  2692  00095C  5044               	movf	((c:_DISP_TIMER1+1)),c,w	;volatile
  2693  00095E  1043               	iorwf ((c:_DISP_TIMER1)),c,w	;volatile
  2694                           opt subtitle "HI-TECH Software Omniscient Code Generator (Lite mode) build 49521"
  2695  000960  A4D8               	btfss	status,2
  2696  000962  D001               	goto	i2u53_41
  2697  000964  D001               	goto	i2u53_40
  2698  000966                     i2u53_41:
  2699  000966  D01F               	goto	i2l1344
  2700  000968                     i2u53_40:
  2701                           opt subtitle "HI-TECH Software Omniscient Code Generator (Lite mode) build 49521"
  2702                           
  2703  000968                     i2l1338:
  2704                           opt subtitle "HI-TECH Software Omniscient Code Generator (Lite mode) build 49521"
  2705                           
  2706  000968  ECE9  F009         	call	i2_clear_screen	;wreg free
  2707                           opt subtitle "HI-TECH Software Omniscient Code Generator (Lite mode) build 49521"
  2708                           
  2709  00096C                     i2l1340:
  2710                           opt subtitle "HI-TECH Software Omniscient Code Generator (Lite mode) build 49521"
  2711  00096C  6E2D               	movwf	(??_isr+0+0)&0ffh,c
  2712  00096E  0E01               	movlw	low(01h)
  2713  000970  6E05               	movwf	((c:?i2_string2screen)),c
  2714  000972  502D               	movf	(??_isr+0+0)&0ffh,c,w
  2715  000974  6E2E               	movwf	(??_isr+1+0)&0ffh,c
  2716  000976  0E00               	movlw	low(0)
  2717  000978  6E06               	movwf	(0+((c:?i2_string2screen)+01h)),c
  2718  00097A  502E               	movf	(??_isr+1+0)&0ffh,c,w
  2719  00097C  0E08               	movlw	high(STR_6)
  2720  00097E  6E08               	movwf	(1+((c:?i2_string2screen)+02h)),c
  2721  000980  0E1E               	movlw	low(STR_6)
  2722  000982  6E07               	movwf	(0+((c:?i2_string2screen)+02h)),c
  2723  000984  EC3B  F009         	call	i2_string2screen	;wreg free
  2724                           opt subtitle "HI-TECH Software Omniscient Code Generator (Lite mode) build 49521"
  2725                           
  2726  000988                     i2l1342:
  2727                           opt subtitle "HI-TECH Software Omniscient Code Generator (Lite mode) build 49521"
  2728  000988  6E2D               	movwf	(??_isr+0+0)&0ffh,c
  2729  00098A  0E02               	movlw	low(02h)
  2730  00098C  6E05               	movwf	((c:?i2_string2screen)),c
  2731  00098E  502D               	movf	(??_isr+0+0)&0ffh,c,w
  2732  000990  6E2E               	movwf	(??_isr+1+0)&0ffh,c
  2733  000992  0E00               	movlw	low(0)
  2734  000994  6E06               	movwf	(0+((c:?i2_string2screen)+01h)),c
  2735  000996  502E               	movf	(??_isr+1+0)&0ffh,c,w
  2736  000998  0E08               	movlw	high(STR_7)
  2737  00099A  6E08               	movwf	(1+((c:?i2_string2screen)+02h)),c
  2738  00099C  0E4E               	movlw	low(STR_7)
  2739  00099E  6E07               	movwf	(0+((c:?i2_string2screen)+02h)),c
  2740  0009A0  EC3B  F009         	call	i2_string2screen	;wreg free
  2741                           opt subtitle "HI-TECH Software Omniscient Code Generator (Lite mode) build 49521"
  2742                           
  2743  0009A4  D00E               	goto	i2l1348
  2744                           opt subtitle "HI-TECH Software Omniscient Code Generator (Lite mode) build 49521"
  2745                           
  2746  0009A6                     i2l153:
  2747                           opt subtitle "HI-TECH Software Omniscient Code Generator (Lite mode) build 49521"
  2748  0009A6                     i2l1344:
  2749                           opt subtitle "HI-TECH Software Omniscient Code Generator (Lite mode) build 49521"
  2750  0009A6  5046               	movf	((c:_DISP_TIMER2+1)),c,w	;volatile
  2751  0009A8  1045               	iorwf ((c:_DISP_TIMER2)),c,w	;volatile
  2752                           opt subtitle "HI-TECH Software Omniscient Code Generator (Lite mode) build 49521"
  2753  0009AA  A4D8               	btfss	status,2
  2754  0009AC  D001               	goto	i2u54_41
  2755  0009AE  D001               	goto	i2u54_40
  2756  0009B0                     i2u54_41:
  2757  0009B0  D008               	goto	i2l1348
  2758  0009B2                     i2u54_40:
  2759                           opt subtitle "HI-TECH Software Omniscient Code Generator (Lite mode) build 49521"
  2760                           
  2761  0009B2                     i2l1346:
  2762                           opt subtitle "HI-TECH Software Omniscient Code Generator (Lite mode) build 49521"
  2763                           
  2764  0009B2  6E2D               	movwf	(??_isr+0+0)&0ffh,c
  2765  0009B4  0E00               	movlw	low(0)
  2766  0009B6  6E1A               	movwf	((c:?_control_relay)),c
  2767  0009B8  502D               	movf	(??_isr+0+0)&0ffh,c,w
  2768  0009BA  EC57  F005         	call	_control_relay	;wreg free
  2769  0009BE  D001               	goto	i2l1348
  2770                           opt subtitle "HI-TECH Software Omniscient Code Generator (Lite mode) build 49521"
  2771                           
  2772  0009C0                     i2l155:
  2773  0009C0  D000               	goto	i2l1348
  2774                           opt subtitle "HI-TECH Software Omniscient Code Generator (Lite mode) build 49521"
  2775                           
  2776  0009C2                     i2l154:
  2777                           opt subtitle "HI-TECH Software Omniscient Code Generator (Lite mode) build 49521"
  2778  0009C2                     i2l1348:
  2779                           opt subtitle "HI-TECH Software Omniscient Code Generator (Lite mode) build 49521"
  2780                           
  2781                           opt pagewidth 120
  2782  0009C2  B280               	btfsc	((c:3968)),c,1	;volatile
  2783  0009C4  D001               	goto	i2u55_41
  2784  0009C6  D001               	goto	i2u55_40
  2785  0009C8                     i2u55_41:
  2786  0009C8  D03B               	goto	i2l1368
  2787  0009CA                     i2u55_40:
  2788                           opt subtitle "HI-TECH Software Omniscient Code Generator (Lite mode) build 49521"
  2789  0009CA                     i2l1350:
  2790  0009CA  504A               	movf	((c:_OLDPRESS+1)),c,w	;volatile
  2791  0009CC  1049               	iorwf ((c:_OLDPRESS)),c,w	;volatile
  2792                           opt subtitle "HI-TECH Software Omniscient Code Generator (Lite mode) build 49521"
  2793  0009CE  A4D8               	btfss	status,2
  2794  0009D0  D001               	goto	i2u56_41
  2795  0009D2  D001               	goto	i2u56_40
  2796  0009D4                     i2u56_41:
  2797  0009D4  D035               	goto	i2l1368
  2798  0009D6                     i2u56_40:
  2799                           opt subtitle "HI-TECH Software Omniscient Code Generator (Lite mode) build 49521"
  2800                           
  2801  0009D6                     i2l1352:
  2802                           opt subtitle "HI-TECH Software Omniscient Code Generator (Lite mode) build 49521"
  2803                           
  2804  0009D6  4A4D               	infsnz	((c:_PRSCOUNT)),c	;volatile
  2805  0009D8  2A4E               	incf	((c:_PRSCOUNT+1)),c	;volatile
  2806                           opt subtitle "HI-TECH Software Omniscient Code Generator (Lite mode) build 49521"
  2807                           
  2808  0009DA                     i2l1354:
  2809                           opt subtitle "HI-TECH Software Omniscient Code Generator (Lite mode) build 49521"
  2810  0009DA  504D               	movf	((c:_PRSCOUNT)),c,w	;volatile
  2811  0009DC  0A03               	xorlw	3
  2812  0009DE  104E               	iorwf ((c:_PRSCOUNT+1)),c,w	;volatile
  2813                           opt subtitle "HI-TECH Software Omniscient Code Generator (Lite mode) build 49521"
  2814  0009E0  A4D8               	btfss	status,2
  2815  0009E2  D001               	goto	i2u57_41
  2816  0009E4  D001               	goto	i2u57_40
  2817  0009E6                     i2u57_41:
  2818  0009E6  D035               	goto	i2l1370
  2819  0009E8                     i2u57_40:
  2820                           opt subtitle "HI-TECH Software Omniscient Code Generator (Lite mode) build 49521"
  2821                           
  2822  0009E8                     i2l1356:
  2823                           opt subtitle "HI-TECH Software Omniscient Code Generator (Lite mode) build 49521"
  2824                           
  2825  0009E8  504F               	movf	((c:isr@running)),c,w
  2826  0009EA  B4D8               	btfsc	status,2
  2827  0009EC  D001               	goto	i2u58_41
  2828  0009EE  D002               	goto	i2u58_40
  2829  0009F0                     i2u58_41:
  2830  0009F0  0E01               	movlw	1
  2831  0009F2  D001               	goto	i2u58_46
  2832  0009F4                     i2u58_40:
  2833  0009F4  0E00               	movlw	0
  2834  0009F6                     i2u58_46:
  2835  0009F6  6E4F               	movwf	((c:isr@running)),c
  2836                           opt subtitle "HI-TECH Software Omniscient Code Generator (Lite mode) build 49521"
  2837                           
  2838  0009F8                     i2l1358:
  2839                           opt subtitle "HI-TECH Software Omniscient Code Generator (Lite mode) build 49521"
  2840  0009F8  C04F  F01A         	movff	(c:isr@running),(c:?_control_relay)
  2841  0009FC  EC57  F005         	call	_control_relay	;wreg free
  2842                           opt subtitle "HI-TECH Software Omniscient Code Generator (Lite mode) build 49521"
  2843                           
  2844  000A00                     i2l1360:
  2845                           opt subtitle "HI-TECH Software Omniscient Code Generator (Lite mode) build 49521"
  2846  000A00  503E               	movf	((c:_BURN_TIME+1)),c,w
  2847  000A02  0A80               	xorlw	80h
  2848  000A04  0F80               	addlw	-((0)^80h)
  2849  000A06  0E01               	movlw	01h
  2850  000A08  B4D8               	btfsc	status,2
  2851  000A0A  5C3D               	subwf	((c:_BURN_TIME)),c,w
  2852  000A0C  A0D8               	btfss	status,0
  2853  000A0E  D001               	goto	i2u59_41
  2854  000A10  D001               	goto	i2u59_40
  2855  000A12                     i2u59_41:
  2856  000A12  D010               	goto	i2l158
  2857  000A14                     i2u59_40:
  2858                           opt subtitle "HI-TECH Software Omniscient Code Generator (Lite mode) build 49521"
  2859                           
  2860  000A14                     i2l1362:
  2861                           opt subtitle "HI-TECH Software Omniscient Code Generator (Lite mode) build 49521"
  2862                           
  2863  000A14  5048               	movf	((c:_ISRUNNING+1)),c,w
  2864  000A16  1047               	iorwf ((c:_ISRUNNING)),c,w
  2865                           opt subtitle "HI-TECH Software Omniscient Code Generator (Lite mode) build 49521"
  2866  000A18  B4D8               	btfsc	status,2
  2867  000A1A  D001               	goto	i2u60_41
  2868  000A1C  D001               	goto	i2u60_40
  2869  000A1E                     i2u60_41:
  2870  000A1E  D005               	goto	i2l1366
  2871  000A20                     i2u60_40:
  2872                           opt subtitle "HI-TECH Software Omniscient Code Generator (Lite mode) build 49521"
  2873                           
  2874  000A20                     i2l1364:
  2875                           opt subtitle "HI-TECH Software Omniscient Code Generator (Lite mode) build 49521"
  2876  000A20  C03D  F03F         	movff	(c:_BURN_TIME),(c:_COOK_COUNT)	;volatile
  2877  000A24  C03E  F040         	movff	(c:_BURN_TIME+1),(c:_COOK_COUNT+1)	;volatile
  2878  000A28  D005               	goto	i2l158
  2879                           opt subtitle "HI-TECH Software Omniscient Code Generator (Lite mode) build 49521"
  2880                           
  2881  000A2A                     i2l159:
  2882                           opt subtitle "HI-TECH Software Omniscient Code Generator (Lite mode) build 49521"
  2883                           
  2884  000A2A                     i2l1366:
  2885                           opt subtitle "HI-TECH Software Omniscient Code Generator (Lite mode) build 49521"
  2886                           
  2887  000A2A  0E00               	movlw	high(0)
  2888  000A2C  6E40               	movwf	((c:_COOK_COUNT+1)),c	;volatile
  2889  000A2E  0E00               	movlw	low(0)
  2890  000A30  6E3F               	movwf	((c:_COOK_COUNT)),c	;volatile
  2891  000A32  D000               	goto	i2l158
  2892                           opt subtitle "HI-TECH Software Omniscient Code Generator (Lite mode) build 49521"
  2893  000A34                     i2l160:
  2894                           opt subtitle "HI-TECH Software Omniscient Code Generator (Lite mode) build 49521"
  2895                           
  2896  000A34                     i2l158:
  2897                           opt subtitle "HI-TECH Software Omniscient Code Generator (Lite mode) build 49521"
  2898                           
  2899                           opt pagewidth 120
  2900  000A34  0E00               	movlw	high(0)
  2901  000A36  6E4E               	movwf	((c:_PRSCOUNT+1)),c	;volatile
  2902  000A38  0E00               	movlw	low(0)
  2903  000A3A  6E4D               	movwf	((c:_PRSCOUNT)),c	;volatile
  2904  000A3C  D00A               	goto	i2l1370
  2905                           opt subtitle "HI-TECH Software Omniscient Code Generator (Lite mode) build 49521"
  2906                           
  2907  000A3E                     i2l157:
  2908                           opt subtitle "HI-TECH Software Omniscient Code Generator (Lite mode) build 49521"
  2909                           
  2910                           opt pagewidth 120
  2911  000A3E  D009               	goto	i2l1370
  2912                           opt subtitle "HI-TECH Software Omniscient Code Generator (Lite mode) build 49521"
  2913                           
  2914  000A40                     i2l156:
  2915                           opt subtitle "HI-TECH Software Omniscient Code Generator (Lite mode) build 49521"
  2916                           
  2917  000A40                     i2l1368:
  2918                           opt subtitle "HI-TECH Software Omniscient Code Generator (Lite mode) build 49521"
  2919                           
  2920                           opt pagewidth 120
  2921  000A40  0E00               	movlw	high(0)
  2922  000A42  6E4E               	movwf	((c:_PRSCOUNT+1)),c	;volatile
  2923  000A44  0E00               	movlw	low(0)
  2924  000A46  6E4D               	movwf	((c:_PRSCOUNT)),c	;volatile
  2925                           opt subtitle "HI-TECH Software Omniscient Code Generator (Lite mode) build 49521"
  2926                           
  2927  000A48  0E00               	movlw	high(01h)
  2928  000A4A  6E4A               	movwf	((c:_OLDPRESS+1)),c	;volatile
  2929  000A4C  0E01               	movlw	low(01h)
  2930  000A4E  6E49               	movwf	((c:_OLDPRESS)),c	;volatile
  2931  000A50  D000               	goto	i2l1370
  2932                           opt subtitle "HI-TECH Software Omniscient Code Generator (Lite mode) build 49521"
  2933                           
  2934  000A52                     i2l161:
  2935                           opt subtitle "HI-TECH Software Omniscient Code Generator (Lite mode) build 49521"
  2936                           
  2937  000A52                     i2l1370:
  2938                           opt subtitle "HI-TECH Software Omniscient Code Generator (Lite mode) build 49521"
  2939                           
  2940  000A52  3080               	rrcf	((c:3968)),c,w	;volatile
  2941  000A54  0B01               	andlw	(1<<1)-1
  2942  000A56  6E2D               	movwf	(??_isr+0+0)&0ffh,c
  2943  000A58  502D               	movf	((??_isr+0+0)),c,w
  2944  000A5A  6E49               	movwf	((c:_OLDPRESS)),c	;volatile
  2945  000A5C  6A4A               	clrf	((c:_OLDPRESS+1)),c	;volatile
  2946                           opt subtitle "HI-TECH Software Omniscient Code Generator (Lite mode) build 49521"
  2947                           
  2948  000A5E                     i2l1372:
  2949                           opt subtitle "HI-TECH Software Omniscient Code Generator (Lite mode) build 49521"
  2950  000A5E  909E               	bcf	((c:3998)),c,0	;volatile
  2951  000A60  D000               	goto	i2l1374
  2952                           opt subtitle "HI-TECH Software Omniscient Code Generator (Lite mode) build 49521"
  2953                           
  2954  000A62                     i2l148:
  2955                           opt subtitle "HI-TECH Software Omniscient Code Generator (Lite mode) build 49521"
  2956                           
  2957  000A62                     i2l1374:
  2958                           opt subtitle "HI-TECH Software Omniscient Code Generator (Lite mode) build 49521"
  2959                           
  2960                           opt pagewidth 120
  2961  000A62  AC9E               	btfss	((c:3998)),c,6	;volatile
  2962  000A64  D001               	goto	i2u61_41
  2963  000A66  D001               	goto	i2u61_40
  2964  000A68                     i2u61_41:
  2965  000A68  D005               	goto	i2l163
  2966  000A6A                     i2u61_40:
  2967                           opt subtitle "HI-TECH Software Omniscient Code Generator (Lite mode) build 49521"
  2968                           
  2969  000A6A                     i2l1376:
  2970                           opt subtitle "HI-TECH Software Omniscient Code Generator (Lite mode) build 49521"
  2971                           
  2972  000A6A  CFC4 F041          	movff	(c:4036),(c:_CUR_POTVAL)	;volatile
  2973  000A6E  6A42               	clrf	((c:_CUR_POTVAL+1)),c
  2974                           opt subtitle "HI-TECH Software Omniscient Code Generator (Lite mode) build 49521"
  2975                           
  2976  000A70  9C9E               	bcf	((c:3998)),c,6	;volatile
  2977  000A72  D000               	goto	i2l163
  2978                           opt subtitle "HI-TECH Software Omniscient Code Generator (Lite mode) build 49521"
  2979                           
  2980  000A74                     i2l162:
  2981                           opt subtitle "HI-TECH Software Omniscient Code Generator (Lite mode) build 49521"
  2982                           
  2983  000A74                     i2l163:
  2984  000A74  C03C  FFF5         	movff	??_isr+15,tablat+0
  2985  000A78  C03B  FFF8         	movff	??_isr+14,tblptru+0
  2986  000A7C  C03A  FFF7         	movff	??_isr+13,tblptrh+0
  2987  000A80  C039  FFF6         	movff	??_isr+12,tblptrl+0
  2988  000A84  C038  FFF4         	movff	??_isr+11,prodh+0
  2989  000A88  C037  FFF3         	movff	??_isr+10,prodl+0
  2990  000A8C  C036  FFDA         	movff	??_isr+9,fsr2h+0
  2991  000A90  C035  FFD9         	movff	??_isr+8,fsr2l+0
  2992  000A94  C034  FFE2         	movff	??_isr+7,fsr1h+0
  2993  000A98  C033  FFE1         	movff	??_isr+6,fsr1l+0
  2994  000A9C  C032  FFEA         	movff	??_isr+5,fsr0h+0
  2995  000AA0  C031  FFE9         	movff	??_isr+4,fsr0l+0
  2996  000AA4  C030  FFFB         	movff	??_isr+3,pclat+1
  2997  000AA8  C02F  FFFA         	movff	??_isr+2,pclat+0
  2998  000AAC  0011               	retfie f
  2999                           opt subtitle "HI-TECH Software Omniscient Code Generator (Lite mode) build 49521"
  3000                           
  3001  000AAE                     	__end_of_isr:
  3002                           opt subtitle "HI-TECH Software Omniscient Code Generator (Lite mode) build 49521"
  3003                           
  3004                           opt pagewidth 120
  3005                           
  3006                           	opt lm
  3007                           
  3008                           	processor	18F4550
  3009                           porta	equ	0F80h
  3010                           portb	equ	0F81h
  3011                           portc	equ	0F82h
  3012                           portd	equ	0F83h
  3013                           porte	equ	0F84h
  3014                           lata	equ	0F89h
  3015                           latb	equ	0F8Ah
  3016                           latc	equ	0F8Bh
  3017                           latd	equ	0F8Ch
  3018                           late	equ	0F8Dh
  3019                           trisa	equ	0F92h
  3020                           trisb	equ	0F93h
  3021                           trisc	equ	0F94h
  3022                           trisd	equ	0F95h
  3023                           trise	equ	0F96h
  3024                           pie1	equ	0F9Dh
  3025                           pir1	equ	0F9Eh
  3026                           ipr1	equ	0F9Fh
  3027                           pie2	equ	0FA0h
  3028                           pir2	equ	0FA1h
  3029                           ipr2	equ	0FA2h
  3030                           t3con	equ	0FB1h
  3031                           tmr3l	equ	0FB2h
  3032                           tmr3h	equ	0FB3h
  3033                           ccp1con	equ	0FBDh
  3034                           ccpr1l	equ	0FBEh
  3035  000C8A                     __ptext8:
  3036                           opt subtitle "HI-TECH Software Omniscient Code Generator (Lite mode) build 49521"
  3037                           
  3038                           opt pagewidth 120
  3039                           
  3040  0000                     	__size_of_led_bar	equ	__end_of_led_bar-_led_bar
  3041                           opt subtitle "HI-TECH Software Omniscient Code Generator (Lite mode) build 49521"
  3042  000C8A                     _led_bar:
  3043                           opt subtitle "HI-TECH Software Omniscient Code Generator (Lite mode) build 49521"
  3044                           
  3045                           opt pagewidth 120
  3046  000C8A                     i2l850:
  3047                           opt subtitle "HI-TECH Software Omniscient Code Generator (Lite mode) build 49521"
  3048  000C8A  5002               	movf	((c:led_bar@value+1)),c,w
  3049  000C8C  0A80               	xorlw	80h
  3050  000C8E  0F80               	addlw	-((0)^80h)
  3051  000C90  0E29               	movlw	029h
  3052  000C92  B4D8               	btfsc	status,2
  3053  000C94  5C01               	subwf	((c:led_bar@value)),c,w
  3054  000C96  B0D8               	btfsc	status,0
  3055  000C98  D001               	goto	i2u1_41
  3056  000C9A  D001               	goto	i2u1_40
  3057  000C9C                     i2u1_41:
  3058  000C9C  D005               	goto	i2l854
  3059  000C9E                     i2u1_40:
  3060                           opt subtitle "HI-TECH Software Omniscient Code Generator (Lite mode) build 49521"
  3061                           
  3062  000C9E                     i2l852:
  3063                           opt subtitle "HI-TECH Software Omniscient Code Generator (Lite mode) build 49521"
  3064  000C9E  0E00               	movlw	high(0)
  3065  000CA0  6E3E               	movwf	((c:_BURN_TIME+1)),c
  3066  000CA2  0E00               	movlw	low(0)
  3067  000CA4  6E3D               	movwf	((c:_BURN_TIME)),c
  3068  000CA6  D000               	goto	i2l854
  3069                           opt subtitle "HI-TECH Software Omniscient Code Generator (Lite mode) build 49521"
  3070  000CA8                     i2l89:
  3071                           opt subtitle "HI-TECH Software Omniscient Code Generator (Lite mode) build 49521"
  3072                           
  3073  000CA8                     i2l854:
  3074                           opt subtitle "HI-TECH Software Omniscient Code Generator (Lite mode) build 49521"
  3075  000CA8  5002               	movf	((c:led_bar@value+1)),c,w
  3076  000CAA  0A80               	xorlw	80h
  3077  000CAC  0F80               	addlw	-((0)^80h)
  3078  000CAE  0E29               	movlw	029h
  3079  000CB0  B4D8               	btfsc	status,2
  3080  000CB2  5C01               	subwf	((c:led_bar@value)),c,w
  3081  000CB4  A0D8               	btfss	status,0
  3082  000CB6  D001               	goto	i2u2_41
  3083  000CB8  D001               	goto	i2u2_40
  3084  000CBA                     i2u2_41:
  3085  000CBA  D006               	goto	i2l90
  3086  000CBC                     i2u2_40:
  3087                           opt subtitle "HI-TECH Software Omniscient Code Generator (Lite mode) build 49521"
  3088                           
  3089  000CBC                     i2l856:
  3090                           opt subtitle "HI-TECH Software Omniscient Code Generator (Lite mode) build 49521"
  3091                           
  3092  000CBC  0E0D               	movlw	high(0D7Ah)
  3093  000CBE  6E3E               	movwf	((c:_BURN_TIME+1)),c
  3094  000CC0  0E7A               	movlw	low(0D7Ah)
  3095  000CC2  6E3D               	movwf	((c:_BURN_TIME)),c
  3096                           opt subtitle "HI-TECH Software Omniscient Code Generator (Lite mode) build 49521"
  3097                           
  3098  000CC4                     i2l858:
  3099                           opt subtitle "HI-TECH Software Omniscient Code Generator (Lite mode) build 49521"
  3100  000CC4  848B               	bsf	((c:3979)),c,2	;volatile
  3101                           opt subtitle "HI-TECH Software Omniscient Code Generator (Lite mode) build 49521"
  3102                           
  3103  000CC6  D002               	goto	i2l860
  3104                           opt subtitle "HI-TECH Software Omniscient Code Generator (Lite mode) build 49521"
  3105                           
  3106  000CC8                     i2l90:
  3107                           opt subtitle "HI-TECH Software Omniscient Code Generator (Lite mode) build 49521"
  3108                           
  3109                           opt pagewidth 120
  3110                           
  3111  000CC8  948B               	bcf	((c:3979)),c,2	;volatile
  3112  000CCA  D000               	goto	i2l860
  3113                           opt subtitle "HI-TECH Software Omniscient Code Generator (Lite mode) build 49521"
  3114                           
  3115  000CCC                     i2l91:
  3116                           opt subtitle "HI-TECH Software Omniscient Code Generator (Lite mode) build 49521"
  3117                           
  3118  000CCC                     i2l860:
  3119                           opt subtitle "HI-TECH Software Omniscient Code Generator (Lite mode) build 49521"
  3120                           
  3121  000CCC  5002               	movf	((c:led_bar@value+1)),c,w
  3122  000CCE  0A80               	xorlw	80h
  3123  000CD0  0F80               	addlw	-((0)^80h)
  3124  000CD2  0E51               	movlw	051h
  3125  000CD4  B4D8               	btfsc	status,2
  3126  000CD6  5C01               	subwf	((c:led_bar@value)),c,w
  3127  000CD8  A0D8               	btfss	status,0
  3128  000CDA  D001               	goto	i2u3_41
  3129  000CDC  D001               	goto	i2u3_40
  3130  000CDE                     i2u3_41:
  3131  000CDE  D006               	goto	i2l92
  3132  000CE0                     i2u3_40:
  3133                           opt subtitle "HI-TECH Software Omniscient Code Generator (Lite mode) build 49521"
  3134                           
  3135  000CE0                     i2l862:
  3136                           opt subtitle "HI-TECH Software Omniscient Code Generator (Lite mode) build 49521"
  3137                           
  3138  000CE0  0E1A               	movlw	high(01AF4h)
  3139  000CE2  6E3E               	movwf	((c:_BURN_TIME+1)),c
  3140  000CE4  0EF4               	movlw	low(01AF4h)
  3141  000CE6  6E3D               	movwf	((c:_BURN_TIME)),c
  3142                           opt subtitle "HI-TECH Software Omniscient Code Generator (Lite mode) build 49521"
  3143                           
  3144  000CE8                     i2l864:
  3145                           opt subtitle "HI-TECH Software Omniscient Code Generator (Lite mode) build 49521"
  3146  000CE8  848C               	bsf	((c:3980)),c,2	;volatile
  3147                           opt subtitle "HI-TECH Software Omniscient Code Generator (Lite mode) build 49521"
  3148                           
  3149  000CEA  D002               	goto	i2l866
  3150                           opt subtitle "HI-TECH Software Omniscient Code Generator (Lite mode) build 49521"
  3151                           
  3152  000CEC                     i2l92:
  3153                           opt subtitle "HI-TECH Software Omniscient Code Generator (Lite mode) build 49521"
  3154                           
  3155                           opt pagewidth 120
  3156                           
  3157  000CEC  948C               	bcf	((c:3980)),c,2	;volatile
  3158  000CEE  D000               	goto	i2l866
  3159                           opt subtitle "HI-TECH Software Omniscient Code Generator (Lite mode) build 49521"
  3160                           
  3161  000CF0                     i2l93:
  3162                           opt subtitle "HI-TECH Software Omniscient Code Generator (Lite mode) build 49521"
  3163                           
  3164  000CF0                     i2l866:
  3165                           opt subtitle "HI-TECH Software Omniscient Code Generator (Lite mode) build 49521"
  3166                           
  3167  000CF0  5002               	movf	((c:led_bar@value+1)),c,w
  3168  000CF2  0A80               	xorlw	80h
  3169  000CF4  0F80               	addlw	-((0)^80h)
  3170  000CF6  0E79               	movlw	079h
  3171  000CF8  B4D8               	btfsc	status,2
  3172  000CFA  5C01               	subwf	((c:led_bar@value)),c,w
  3173  000CFC  A0D8               	btfss	status,0
  3174  000CFE  D001               	goto	i2u4_41
  3175  000D00  D001               	goto	i2u4_40
  3176  000D02                     i2u4_41:
  3177  000D02  D006               	goto	i2l94
  3178  000D04                     i2u4_40:
  3179                           opt subtitle "HI-TECH Software Omniscient Code Generator (Lite mode) build 49521"
  3180                           
  3181  000D04                     i2l868:
  3182                           opt subtitle "HI-TECH Software Omniscient Code Generator (Lite mode) build 49521"
  3183                           
  3184  000D04  0E28               	movlw	high(0286Eh)
  3185  000D06  6E3E               	movwf	((c:_BURN_TIME+1)),c
  3186  000D08  0E6E               	movlw	low(0286Eh)
  3187  000D0A  6E3D               	movwf	((c:_BURN_TIME)),c
  3188                           opt subtitle "HI-TECH Software Omniscient Code Generator (Lite mode) build 49521"
  3189                           
  3190  000D0C                     i2l870:
  3191                           opt subtitle "HI-TECH Software Omniscient Code Generator (Lite mode) build 49521"
  3192  000D0C  868C               	bsf	((c:3980)),c,3	;volatile
  3193                           opt subtitle "HI-TECH Software Omniscient Code Generator (Lite mode) build 49521"
  3194                           
  3195  000D0E  D002               	goto	i2l872
  3196                           opt subtitle "HI-TECH Software Omniscient Code Generator (Lite mode) build 49521"
  3197                           
  3198  000D10                     i2l94:
  3199                           opt subtitle "HI-TECH Software Omniscient Code Generator (Lite mode) build 49521"
  3200                           
  3201                           opt pagewidth 120
  3202                           
  3203  000D10  968C               	bcf	((c:3980)),c,3	;volatile
  3204  000D12  D000               	goto	i2l872
  3205                           opt subtitle "HI-TECH Software Omniscient Code Generator (Lite mode) build 49521"
  3206                           
  3207  000D14                     i2l95:
  3208                           opt subtitle "HI-TECH Software Omniscient Code Generator (Lite mode) build 49521"
  3209                           
  3210  000D14                     i2l872:
  3211                           opt subtitle "HI-TECH Software Omniscient Code Generator (Lite mode) build 49521"
  3212                           
  3213  000D14  5002               	movf	((c:led_bar@value+1)),c,w
  3214  000D16  0A80               	xorlw	80h
  3215  000D18  0F80               	addlw	-((0)^80h)
  3216  000D1A  0EA1               	movlw	0A1h
  3217  000D1C  B4D8               	btfsc	status,2
  3218  000D1E  5C01               	subwf	((c:led_bar@value)),c,w
  3219  000D20  A0D8               	btfss	status,0
  3220  000D22  D001               	goto	i2u5_41
  3221  000D24  D001               	goto	i2u5_40
  3222  000D26                     i2u5_41:
  3223  000D26  D006               	goto	i2l96
  3224  000D28                     i2u5_40:
  3225                           opt subtitle "HI-TECH Software Omniscient Code Generator (Lite mode) build 49521"
  3226                           
  3227  000D28                     i2l874:
  3228                           opt subtitle "HI-TECH Software Omniscient Code Generator (Lite mode) build 49521"
  3229                           
  3230  000D28  0E35               	movlw	high(035E8h)
  3231  000D2A  6E3E               	movwf	((c:_BURN_TIME+1)),c
  3232  000D2C  0EE8               	movlw	low(035E8h)
  3233  000D2E  6E3D               	movwf	((c:_BURN_TIME)),c
  3234                           opt subtitle "HI-TECH Software Omniscient Code Generator (Lite mode) build 49521"
  3235                           
  3236  000D30                     i2l876:
  3237                           opt subtitle "HI-TECH Software Omniscient Code Generator (Lite mode) build 49521"
  3238  000D30  8C8B               	bsf	((c:3979)),c,6	;volatile
  3239                           opt subtitle "HI-TECH Software Omniscient Code Generator (Lite mode) build 49521"
  3240                           
  3241  000D32  D002               	goto	i2l878
  3242                           opt subtitle "HI-TECH Software Omniscient Code Generator (Lite mode) build 49521"
  3243                           
  3244  000D34                     i2l96:
  3245                           opt subtitle "HI-TECH Software Omniscient Code Generator (Lite mode) build 49521"
  3246                           
  3247                           opt pagewidth 120
  3248                           
  3249  000D34  9C8B               	bcf	((c:3979)),c,6	;volatile
  3250  000D36  D000               	goto	i2l878
  3251                           opt subtitle "HI-TECH Software Omniscient Code Generator (Lite mode) build 49521"
  3252                           
  3253  000D38                     i2l97:
  3254                           opt subtitle "HI-TECH Software Omniscient Code Generator (Lite mode) build 49521"
  3255                           
  3256  000D38                     i2l878:
  3257                           opt subtitle "HI-TECH Software Omniscient Code Generator (Lite mode) build 49521"
  3258                           
  3259  000D38  5002               	movf	((c:led_bar@value+1)),c,w
  3260  000D3A  0A80               	xorlw	80h
  3261  000D3C  0F80               	addlw	-((0)^80h)
  3262  000D3E  0EC9               	movlw	0C9h
  3263  000D40  B4D8               	btfsc	status,2
  3264  000D42  5C01               	subwf	((c:led_bar@value)),c,w
  3265  000D44  A0D8               	btfss	status,0
  3266  000D46  D001               	goto	i2u6_41
  3267  000D48  D001               	goto	i2u6_40
  3268  000D4A                     i2u6_41:
  3269  000D4A  D006               	goto	i2l98
  3270  000D4C                     i2u6_40:
  3271                           opt subtitle "HI-TECH Software Omniscient Code Generator (Lite mode) build 49521"
  3272                           
  3273  000D4C                     i2l880:
  3274                           opt subtitle "HI-TECH Software Omniscient Code Generator (Lite mode) build 49521"
  3275                           
  3276  000D4C  0E43               	movlw	high(04362h)
  3277  000D4E  6E3E               	movwf	((c:_BURN_TIME+1)),c
  3278  000D50  0E62               	movlw	low(04362h)
  3279  000D52  6E3D               	movwf	((c:_BURN_TIME)),c
  3280                           opt subtitle "HI-TECH Software Omniscient Code Generator (Lite mode) build 49521"
  3281                           
  3282  000D54                     i2l882:
  3283                           opt subtitle "HI-TECH Software Omniscient Code Generator (Lite mode) build 49521"
  3284  000D54  8E8B               	bsf	((c:3979)),c,7	;volatile
  3285                           opt subtitle "HI-TECH Software Omniscient Code Generator (Lite mode) build 49521"
  3286                           
  3287  000D56  D002               	goto	i2l100
  3288                           opt subtitle "HI-TECH Software Omniscient Code Generator (Lite mode) build 49521"
  3289                           
  3290  000D58                     i2l98:
  3291                           opt subtitle "HI-TECH Software Omniscient Code Generator (Lite mode) build 49521"
  3292                           
  3293                           opt pagewidth 120
  3294                           
  3295  000D58  9E8B               	bcf	((c:3979)),c,7	;volatile
  3296  000D5A  D000               	goto	i2l100
  3297                           opt subtitle "HI-TECH Software Omniscient Code Generator (Lite mode) build 49521"
  3298                           
  3299  000D5C                     i2l99:
  3300                           opt subtitle "HI-TECH Software Omniscient Code Generator (Lite mode) build 49521"
  3301                           
  3302  000D5C                     i2l100:
  3303  000D5C  0012               	return
  3304                           opt subtitle "HI-TECH Software Omniscient Code Generator (Lite mode) build 49521"
  3305                           
  3306  000D5E                     	__end_of_led_bar:
  3307                           opt subtitle "HI-TECH Software Omniscient Code Generator (Lite mode) build 49521"
  3308                           
  3309                           opt pagewidth 120
  3310                           
  3311                           	opt lm
  3312                           
  3313                           	processor	18F4550
  3314                           porta	equ	0F80h
  3315                           portb	equ	0F81h
  3316                           portc	equ	0F82h
  3317                           portd	equ	0F83h
  3318                           porte	equ	0F84h
  3319                           lata	equ	0F89h
  3320                           latb	equ	0F8Ah
  3321                           latc	equ	0F8Bh
  3322                           latd	equ	0F8Ch
  3323                           late	equ	0F8Dh
  3324                           trisa	equ	0F92h
  3325                           trisb	equ	0F93h
  3326                           trisc	equ	0F94h
  3327                           trisd	equ	0F95h
  3328                           trise	equ	0F96h
  3329                           pie1	equ	0F9Dh
  3330                           pir1	equ	0F9Eh
  3331                           ipr1	equ	0F9Fh
  3332                           pie2	equ	0FA0h
  3333                           pir2	equ	0FA1h
  3334                           ipr2	equ	0FA2h
  3335                           t3con	equ	0FB1h
  3336                           tmr3l	equ	0FB2h
  3337                           tmr3h	equ	0FB3h
  3338                           ccp1con	equ	0FBDh
  3339                           ccpr1l	equ	0FBEh
  3340                           ccpr1h	equ	0FBFh
  3341                           adcon1	equ	0FC1h
  3342                           adcon0	equ	0FC2h
  3343  0010AC                     __ptext9:
  3344                           opt subtitle "HI-TECH Software Omniscient Code Generator (Lite mode) build 49521"
  3345                           
  3346                           opt pagewidth 120
  3347                           
  3348  0000                     	__size_of_update_lcd_timer	equ	__end_of_update_lcd_timer-_update_lcd_timer
  3349                           opt subtitle "HI-TECH Software Omniscient Code Generator (Lite mode) build 49521"
  3350  0010AC                     _update_lcd_timer:
  3351                           opt subtitle "HI-TECH Software Omniscient Code Generator (Lite mode) build 49521"
  3352                           
  3353                           opt pagewidth 120
  3354  0010AC                     i2l1262:
  3355                           opt subtitle "HI-TECH Software Omniscient Code Generator (Lite mode) build 49521"
  3356                           
  3357  0010AC  6E1A               	movwf	(??_update_lcd_timer+0+0)&0ffh,c
  3358  0010AE  0E02               	movlw	low(02h)
  3359  0010B0  6E03               	movwf	((c:?_clear_line)),c
  3360  0010B2  501A               	movf	(??_update_lcd_timer+0+0)&0ffh,c,w
  3361  0010B4  6E1B               	movwf	(??_update_lcd_timer+1+0)&0ffh,c
  3362  0010B6  0E07               	movlw	low(07h)
  3363  0010B8  6E04               	movwf	(0+((c:?_clear_line)+01h)),c
  3364  0010BA  501B               	movf	(??_update_lcd_timer+1+0)&0ffh,c,w
  3365  0010BC  ECAA  F007         	call	_clear_line	;wreg free
  3366                           opt subtitle "HI-TECH Software Omniscient Code Generator (Lite mode) build 49521"
  3367                           
  3368  0010C0                     i2l1264:
  3369                           opt subtitle "HI-TECH Software Omniscient Code Generator (Lite mode) build 49521"
  3370  0010C0  6E1A               	movwf	(??_update_lcd_timer+0+0)&0ffh,c
  3371  0010C2  0E02               	movlw	low(02h)
  3372  0010C4  6E05               	movwf	((c:?i2_string2screen)),c
  3373  0010C6  501A               	movf	(??_update_lcd_timer+0+0)&0ffh,c,w
  3374  0010C8  6E1B               	movwf	(??_update_lcd_timer+1+0)&0ffh,c
  3375  0010CA  0E00               	movlw	low(0)
  3376  0010CC  6E06               	movwf	(0+((c:?i2_string2screen)+01h)),c
  3377  0010CE  501B               	movf	(??_update_lcd_timer+1+0)&0ffh,c,w
  3378  0010D0  0E08               	movlw	high(STR_1)
  3379  0010D2  6E08               	movwf	(1+((c:?i2_string2screen)+02h)),c
  3380  0010D4  0E47               	movlw	low(STR_1)
  3381  0010D6  6E07               	movwf	(0+((c:?i2_string2screen)+02h)),c
  3382  0010D8  EC3B  F009         	call	i2_string2screen	;wreg free
  3383                           opt subtitle "HI-TECH Software Omniscient Code Generator (Lite mode) build 49521"
  3384                           
  3385  0010DC                     i2l1266:
  3386                           opt subtitle "HI-TECH Software Omniscient Code Generator (Lite mode) build 49521"
  3387  0010DC  0E00               	movlw	high((c:update_lcd_timer@buf))
  3388  0010DE  6E13               	movwf	((c:?_itoa+1)),c
  3389  0010E0  0E1C               	movlw	low((c:update_lcd_timer@buf))
  3390  0010E2  6E12               	movwf	((c:?_itoa)),c
  3391  0010E4  C03F  F014         	movff	(c:_COOK_COUNT),0+((c:?_itoa)+02h)	;volatile
  3392  0010E8  C040  F015         	movff	(c:_COOK_COUNT+1),1+((c:?_itoa)+02h)	;volatile
  3393  0010EC  0E00               	movlw	high(0Ah)
  3394  0010EE  6E17               	movwf	(1+((c:?_itoa)+04h)),c
  3395  0010F0  0E0A               	movlw	low(0Ah)
  3396  0010F2  6E16               	movwf	(0+((c:?_itoa)+04h)),c
  3397  0010F4  EC16  F009         	call	_itoa	;wreg free
  3398                           opt subtitle "HI-TECH Software Omniscient Code Generator (Lite mode) build 49521"
  3399                           
  3400  0010F8                     i2l1268:
  3401                           opt subtitle "HI-TECH Software Omniscient Code Generator (Lite mode) build 49521"
  3402  0010F8  6E1A               	movwf	(??_update_lcd_timer+0+0)&0ffh,c
  3403  0010FA  0E02               	movlw	low(02h)
  3404  0010FC  6E05               	movwf	((c:?i2_string2screen)),c
  3405  0010FE  501A               	movf	(??_update_lcd_timer+0+0)&0ffh,c,w
  3406  001100  6E1B               	movwf	(??_update_lcd_timer+1+0)&0ffh,c
  3407  001102  0E06               	movlw	low(06h)
  3408  001104  6E06               	movwf	(0+((c:?i2_string2screen)+01h)),c
  3409  001106  501B               	movf	(??_update_lcd_timer+1+0)&0ffh,c,w
  3410  001108  0E00               	movlw	high((c:update_lcd_timer@buf))
  3411  00110A  6E08               	movwf	(1+((c:?i2_string2screen)+02h)),c
  3412  00110C  0E1C               	movlw	low((c:update_lcd_timer@buf))
  3413  00110E  6E07               	movwf	(0+((c:?i2_string2screen)+02h)),c
  3414  001110  EC3B  F009         	call	i2_string2screen	;wreg free
  3415                           opt subtitle "HI-TECH Software Omniscient Code Generator (Lite mode) build 49521"
  3416                           
  3417  001114                     i2l127:
  3418  001114  0012               	return
  3419                           opt subtitle "HI-TECH Software Omniscient Code Generator (Lite mode) build 49521"
  3420                           
  3421  001116                     	__end_of_update_lcd_timer:
  3422                           opt subtitle "HI-TECH Software Omniscient Code Generator (Lite mode) build 49521"
  3423                           
  3424                           opt pagewidth 120
  3425                           
  3426                           	opt lm
  3427                           
  3428                           	processor	18F4550
  3429                           porta	equ	0F80h
  3430                           portb	equ	0F81h
  3431                           portc	equ	0F82h
  3432                           portd	equ	0F83h
  3433                           porte	equ	0F84h
  3434                           lata	equ	0F89h
  3435                           latb	equ	0F8Ah
  3436                           latc	equ	0F8Bh
  3437                           latd	equ	0F8Ch
  3438                           late	equ	0F8Dh
  3439                           trisa	equ	0F92h
  3440                           trisb	equ	0F93h
  3441                           trisc	equ	0F94h
  3442                           trisd	equ	0F95h
  3443                           trise	equ	0F96h
  3444                           pie1	equ	0F9Dh
  3445                           pir1	equ	0F9Eh
  3446                           ipr1	equ	0F9Fh
  3447                           pie2	equ	0FA0h
  3448                           pir2	equ	0FA1h
  3449                           ipr2	equ	0FA2h
  3450                           t3con	equ	0FB1h
  3451                           tmr3l	equ	0FB2h
  3452                           tmr3h	equ	0FB3h
  3453                           ccp1con	equ	0FBDh
  3454                           ccpr1l	equ	0FBEh
  3455                           ccpr1h	equ	0FBFh
  3456                           adcon1	equ	0FC1h
  3457                           adcon0	equ	0FC2h
  3458                           adresl	equ	0FC3h
  3459  000F54                     __ptext10:
  3460                           opt subtitle "HI-TECH Software Omniscient Code Generator (Lite mode) build 49521"
  3461                           
  3462                           opt pagewidth 120
  3463                           
  3464  0000                     	__size_of_clear_line	equ	__end_of_clear_line-_clear_line
  3465                           opt subtitle "HI-TECH Software Omniscient Code Generator (Lite mode) build 49521"
  3466  000F54                     _clear_line:
  3467                           opt subtitle "HI-TECH Software Omniscient Code Generator (Lite mode) build 49521"
  3468                           
  3469                           opt pagewidth 120
  3470  000F54                     i2l1178:
  3471                           opt subtitle "HI-TECH Software Omniscient Code Generator (Lite mode) build 49521"
  3472  000F54  6E05               	movwf	(??_clear_line+0+0)&0ffh,c
  3473  000F56  0E00               	movlw	low(0)
  3474  000F58  6E08               	movwf	((c:clear_line@location)),c
  3475  000F5A  5005               	movf	(??_clear_line+0+0)&0ffh,c,w
  3476                           opt subtitle "HI-TECH Software Omniscient Code Generator (Lite mode) build 49521"
  3477                           
  3478  000F5C                     i2l1180:
  3479                           opt subtitle "HI-TECH Software Omniscient Code Generator (Lite mode) build 49521"
  3480  000F5C  0E02               	movlw	(02h)&0ffh
  3481  000F5E  6003               	cpfslt	((c:clear_line@row)),c
  3482  000F60  D001               	goto	i2u28_41
  3483  000F62  D001               	goto	i2u28_40
  3484  000F64                     i2u28_41:
  3485  000F64  D009               	goto	i2l1186
  3486  000F66                     i2u28_40:
  3487                           opt subtitle "HI-TECH Software Omniscient Code Generator (Lite mode) build 49521"
  3488                           
  3489  000F66                     i2l1182:
  3490                           opt subtitle "HI-TECH Software Omniscient Code Generator (Lite mode) build 49521"
  3491                           
  3492  000F66  5004               	movf	((c:clear_line@pos)),c,w
  3493  000F68  0B0F               	andlw	low(0Fh)
  3494  000F6A  0980               	iorlw	low(080h)
  3495  000F6C  6E08               	movwf	((c:clear_line@location)),c
  3496                           opt subtitle "HI-TECH Software Omniscient Code Generator (Lite mode) build 49521"
  3497                           
  3498  000F6E                     i2l1184:
  3499                           opt subtitle "HI-TECH Software Omniscient Code Generator (Lite mode) build 49521"
  3500  000F6E  C008  F001         	movff	(c:clear_line@location),(c:?i2_write_command)
  3501  000F72  ECBC  F009         	call	i2_write_command	;wreg free
  3502                           opt subtitle "HI-TECH Software Omniscient Code Generator (Lite mode) build 49521"
  3503                           
  3504  000F76  D009               	goto	i2l1190
  3505                           opt subtitle "HI-TECH Software Omniscient Code Generator (Lite mode) build 49521"
  3506                           
  3507  000F78                     i2l120:
  3508                           opt subtitle "HI-TECH Software Omniscient Code Generator (Lite mode) build 49521"
  3509                           
  3510  000F78                     i2l1186:
  3511                           opt subtitle "HI-TECH Software Omniscient Code Generator (Lite mode) build 49521"
  3512                           
  3513                           opt pagewidth 120
  3514  000F78  5004               	movf	((c:clear_line@pos)),c,w
  3515  000F7A  0B0F               	andlw	low(0Fh)
  3516  000F7C  09C0               	iorlw	low(0C0h)
  3517  000F7E  6E08               	movwf	((c:clear_line@location)),c
  3518                           opt subtitle "HI-TECH Software Omniscient Code Generator (Lite mode) build 49521"
  3519                           
  3520  000F80                     i2l1188:
  3521                           opt subtitle "HI-TECH Software Omniscient Code Generator (Lite mode) build 49521"
  3522  000F80  C008  F001         	movff	(c:clear_line@location),(c:?i2_write_command)
  3523  000F84  ECBC  F009         	call	i2_write_command	;wreg free
  3524  000F88  D000               	goto	i2l1190
  3525                           opt subtitle "HI-TECH Software Omniscient Code Generator (Lite mode) build 49521"
  3526                           
  3527  000F8A                     i2l121:
  3528                           opt subtitle "HI-TECH Software Omniscient Code Generator (Lite mode) build 49521"
  3529                           
  3530  000F8A                     i2l1190:
  3531                           opt subtitle "HI-TECH Software Omniscient Code Generator (Lite mode) build 49521"
  3532                           
  3533  000F8A  0E00               	movlw	high(0)
  3534  000F8C  6E07               	movwf	((c:clear_line@i+1)),c
  3535  000F8E  0E00               	movlw	low(0)
  3536  000F90  6E06               	movwf	((c:clear_line@i)),c
  3537                           opt subtitle "HI-TECH Software Omniscient Code Generator (Lite mode) build 49521"
  3538  000F92                     i2l1192:
  3539  000F92  5007               	movf	((c:clear_line@i+1)),c,w
  3540  000F94  0A80               	xorlw	80h
  3541  000F96  0F80               	addlw	-((0)^80h)
  3542  000F98  0E10               	movlw	010h
  3543  000F9A  B4D8               	btfsc	status,2
  3544  000F9C  5C06               	subwf	((c:clear_line@i)),c,w
  3545  000F9E  A0D8               	btfss	status,0
  3546  000FA0  D001               	goto	i2u29_41
  3547  000FA2  D001               	goto	i2u29_40
  3548  000FA4                     i2u29_41:
  3549  000FA4  D002               	goto	i2l1196
  3550  000FA6                     i2u29_40:
  3551  000FA6  D014               	goto	i2l124
  3552                           opt subtitle "HI-TECH Software Omniscient Code Generator (Lite mode) build 49521"
  3553  000FA8                     i2l1194:
  3554  000FA8  D013               	goto	i2l124
  3555                           opt subtitle "HI-TECH Software Omniscient Code Generator (Lite mode) build 49521"
  3556                           
  3557  000FAA                     i2l122:
  3558                           opt subtitle "HI-TECH Software Omniscient Code Generator (Lite mode) build 49521"
  3559  000FAA                     i2l1196:
  3560                           opt subtitle "HI-TECH Software Omniscient Code Generator (Lite mode) build 49521"
  3561  000FAA  6E05               	movwf	(??_clear_line+0+0)&0ffh,c
  3562  000FAC  0E20               	movlw	low(020h)
  3563  000FAE  6E01               	movwf	((c:?i2_write_char)),c
  3564  000FB0  5005               	movf	(??_clear_line+0+0)&0ffh,c,w
  3565  000FB2  ECA8  F009         	call	i2_write_char	;wreg free
  3566                           opt subtitle "HI-TECH Software Omniscient Code Generator (Lite mode) build 49521"
  3567                           
  3568  000FB6                     i2l1198:
  3569  000FB6  4A06               	infsnz	((c:clear_line@i)),c
  3570  000FB8  2A07               	incf	((c:clear_line@i+1)),c
  3571                           opt subtitle "HI-TECH Software Omniscient Code Generator (Lite mode) build 49521"
  3572  000FBA                     i2l1200:
  3573  000FBA  5007               	movf	((c:clear_line@i+1)),c,w
  3574  000FBC  0A80               	xorlw	80h
  3575  000FBE  0F80               	addlw	-((0)^80h)
  3576  000FC0  0E10               	movlw	010h
  3577  000FC2  B4D8               	btfsc	status,2
  3578  000FC4  5C06               	subwf	((c:clear_line@i)),c,w
  3579  000FC6  A0D8               	btfss	status,0
  3580  000FC8  D001               	goto	i2u30_41
  3581  000FCA  D001               	goto	i2u30_40
  3582  000FCC                     i2u30_41:
  3583  000FCC  D7EE               	goto	i2l1196
  3584  000FCE                     i2u30_40:
  3585  000FCE  D000               	goto	i2l124
  3586                           opt subtitle "HI-TECH Software Omniscient Code Generator (Lite mode) build 49521"
  3587  000FD0                     i2l123:
  3588                           opt subtitle "HI-TECH Software Omniscient Code Generator (Lite mode) build 49521"
  3589                           
  3590  000FD0                     i2l124:
  3591  000FD0  0012               	return
  3592                           opt subtitle "HI-TECH Software Omniscient Code Generator (Lite mode) build 49521"
  3593                           
  3594  000FD2                     	__end_of_clear_line:
  3595                           opt subtitle "HI-TECH Software Omniscient Code Generator (Lite mode) build 49521"
  3596                           
  3597                           opt pagewidth 120
  3598                           
  3599                           	opt lm
  3600                           
  3601                           	processor	18F4550
  3602                           porta	equ	0F80h
  3603                           portb	equ	0F81h
  3604                           portc	equ	0F82h
  3605                           portd	equ	0F83h
  3606                           porte	equ	0F84h
  3607                           lata	equ	0F89h
  3608                           latb	equ	0F8Ah
  3609                           latc	equ	0F8Bh
  3610                           latd	equ	0F8Ch
  3611                           late	equ	0F8Dh
  3612                           trisa	equ	0F92h
  3613                           trisb	equ	0F93h
  3614                           trisc	equ	0F94h
  3615                           trisd	equ	0F95h
  3616                           trise	equ	0F96h
  3617                           pie1	equ	0F9Dh
  3618                           pir1	equ	0F9Eh
  3619                           ipr1	equ	0F9Fh
  3620                           pie2	equ	0FA0h
  3621                           pir2	equ	0FA1h
  3622                           ipr2	equ	0FA2h
  3623                           t3con	equ	0FB1h
  3624                           tmr3l	equ	0FB2h
  3625                           tmr3h	equ	0FB3h
  3626                           ccp1con	equ	0FBDh
  3627                           ccpr1l	equ	0FBEh
  3628                           ccpr1h	equ	0FBFh
  3629                           adcon1	equ	0FC1h
  3630                           adcon0	equ	0FC2h
  3631                           adresl	equ	0FC3h
  3632                           adresh	equ	0FC4h
  3633  000AAE                     __ptext11:
  3634                           opt subtitle "HI-TECH Software Omniscient Code Generator (Lite mode) build 49521"
  3635                           
  3636                           opt pagewidth 120
  3637                           
  3638  0000                     	__size_of_control_relay	equ	__end_of_control_relay-_control_relay
  3639                           opt subtitle "HI-TECH Software Omniscient Code Generator (Lite mode) build 49521"
  3640  000AAE                     _control_relay:
  3641                           opt subtitle "HI-TECH Software Omniscient Code Generator (Lite mode) build 49521"
  3642                           
  3643                           opt pagewidth 120
  3644  000AAE                     i2l1270:
  3645                           opt subtitle "HI-TECH Software Omniscient Code Generator (Lite mode) build 49521"
  3646                           
  3647  000AAE  501A               	movf	((c:control_relay@value)),c,w
  3648  000AB0  B4D8               	btfsc	status,2
  3649  000AB2  D001               	goto	i2u40_41
  3650  000AB4  D001               	goto	i2u40_40
  3651  000AB6                     i2u40_41:
  3652  000AB6  D055               	goto	i2l136
  3653  000AB8                     i2u40_40:
  3654                           opt subtitle "HI-TECH Software Omniscient Code Generator (Lite mode) build 49521"
  3655                           
  3656  000AB8                     i2l1272:
  3657                           opt subtitle "HI-TECH Software Omniscient Code Generator (Lite mode) build 49521"
  3658                           
  3659  000AB8  808B               	bsf	((c:3979)),c,0	;volatile
  3660                           opt subtitle "HI-TECH Software Omniscient Code Generator (Lite mode) build 49521"
  3661                           
  3662  000ABA                     i2l1274:
  3663                           opt subtitle "HI-TECH Software Omniscient Code Generator (Lite mode) build 49521"
  3664  000ABA  0E00               	movlw	high(01h)
  3665  000ABC  6E48               	movwf	((c:_ISRUNNING+1)),c
  3666  000ABE  0E01               	movlw	low(01h)
  3667  000AC0  6E47               	movwf	((c:_ISRUNNING)),c
  3668                           opt subtitle "HI-TECH Software Omniscient Code Generator (Lite mode) build 49521"
  3669                           
  3670  000AC2                     i2l1276:
  3671                           opt subtitle "HI-TECH Software Omniscient Code Generator (Lite mode) build 49521"
  3672  000AC2  808D               	bsf	((c:3981)),c,0	;volatile
  3673                           opt subtitle "HI-TECH Software Omniscient Code Generator (Lite mode) build 49521"
  3674                           
  3675  000AC4                     i2l1278:
  3676                           opt subtitle "HI-TECH Software Omniscient Code Generator (Lite mode) build 49521"
  3677  000AC4  ECE9  F009         	call	i2_clear_screen	;wreg free
  3678                           opt subtitle "HI-TECH Software Omniscient Code Generator (Lite mode) build 49521"
  3679                           
  3680  000AC8                     i2l1280:
  3681                           opt subtitle "HI-TECH Software Omniscient Code Generator (Lite mode) build 49521"
  3682  000AC8  6E1B               	movwf	(??_control_relay+0+0)&0ffh,c
  3683  000ACA  0E01               	movlw	low(01h)
  3684  000ACC  6E05               	movwf	((c:?i2_string2screen)),c
  3685  000ACE  501B               	movf	(??_control_relay+0+0)&0ffh,c,w
  3686  000AD0  6E1C               	movwf	(??_control_relay+1+0)&0ffh,c
  3687  000AD2  0E00               	movlw	low(0)
  3688  000AD4  6E06               	movwf	(0+((c:?i2_string2screen)+01h)),c
  3689  000AD6  501C               	movf	(??_control_relay+1+0)&0ffh,c,w
  3690  000AD8  0E08               	movlw	high(STR_2)
  3691  000ADA  6E08               	movwf	(1+((c:?i2_string2screen)+02h)),c
  3692  000ADC  0E35               	movlw	low(STR_2)
  3693  000ADE  6E07               	movwf	(0+((c:?i2_string2screen)+02h)),c
  3694  000AE0  EC3B  F009         	call	i2_string2screen	;wreg free
  3695                           opt subtitle "HI-TECH Software Omniscient Code Generator (Lite mode) build 49521"
  3696                           
  3697  000AE4                     i2l1282:
  3698                           opt subtitle "HI-TECH Software Omniscient Code Generator (Lite mode) build 49521"
  3699  000AE4  6E1B               	movwf	(??_control_relay+0+0)&0ffh,c
  3700  000AE6  0E02               	movlw	low(02h)
  3701  000AE8  6E05               	movwf	((c:?i2_string2screen)),c
  3702  000AEA  501B               	movf	(??_control_relay+0+0)&0ffh,c,w
  3703  000AEC  6E1C               	movwf	(??_control_relay+1+0)&0ffh,c
  3704  000AEE  0E00               	movlw	low(0)
  3705  000AF0  6E06               	movwf	(0+((c:?i2_string2screen)+01h)),c
  3706  000AF2  501C               	movf	(??_control_relay+1+0)&0ffh,c,w
  3707  000AF4  0E08               	movlw	high(STR_3)
  3708  000AF6  6E08               	movwf	(1+((c:?i2_string2screen)+02h)),c
  3709  000AF8  0E47               	movlw	low(STR_3)
  3710  000AFA  6E07               	movwf	(0+((c:?i2_string2screen)+02h)),c
  3711  000AFC  EC3B  F009         	call	i2_string2screen	;wreg free
  3712                           opt subtitle "HI-TECH Software Omniscient Code Generator (Lite mode) build 49521"
  3713                           
  3714  000B00                     i2l1284:
  3715                           opt subtitle "HI-TECH Software Omniscient Code Generator (Lite mode) build 49521"
  3716  000B00  0E00               	movlw	high((c:control_relay@buf))
  3717  000B02  6E13               	movwf	((c:?_itoa+1)),c
  3718  000B04  0E1D               	movlw	low((c:control_relay@buf))
  3719  000B06  6E12               	movwf	((c:?_itoa)),c
  3720  000B08  0E00               	movlw	high(064h)
  3721  000B0A  6E04               	movwf	(1+((c:?___wmul)+02h)),c
  3722  000B0C  0E64               	movlw	low(064h)
  3723  000B0E  6E03               	movwf	(0+((c:?___wmul)+02h)),c
  3724  000B10  C03F  F001         	movff	(c:_COOK_COUNT),(c:?___wmul)	;volatile
  3725  000B14  C040  F002         	movff	(c:_COOK_COUNT+1),(c:?___wmul+1)	;volatile
  3726  000B18  EC5D  F009         	call	___wmul	;wreg free
  3727  000B1C  C001  F007         	movff	0+?___wmul,(c:?___awdiv)
  3728  000B20  C002  F008         	movff	1+?___wmul,(c:?___awdiv+1)
  3729  000B24  0E00               	movlw	high(03Ch)
  3730  000B26  6E0A               	movwf	(1+((c:?___awdiv)+02h)),c
  3731  000B28  0E3C               	movlw	low(03Ch)
  3732  000B2A  6E09               	movwf	(0+((c:?___awdiv)+02h)),c
  3733  000B2C  ECAF  F006         	call	___awdiv	;wreg free
  3734  000B30  C007  F014         	movff	0+?___awdiv,0+((c:?_itoa)+02h)
  3735  000B34  C008  F015         	movff	1+?___awdiv,1+((c:?_itoa)+02h)
  3736  000B38  0E00               	movlw	high(0Ah)
  3737  000B3A  6E17               	movwf	(1+((c:?_itoa)+04h)),c
  3738  000B3C  0E0A               	movlw	low(0Ah)
  3739  000B3E  6E16               	movwf	(0+((c:?_itoa)+04h)),c
  3740  000B40  EC16  F009         	call	_itoa	;wreg free
  3741                           opt subtitle "HI-TECH Software Omniscient Code Generator (Lite mode) build 49521"
  3742                           
  3743  000B44                     i2l1286:
  3744                           opt subtitle "HI-TECH Software Omniscient Code Generator (Lite mode) build 49521"
  3745  000B44  6E1B               	movwf	(??_control_relay+0+0)&0ffh,c
  3746  000B46  0E02               	movlw	low(02h)
  3747  000B48  6E05               	movwf	((c:?i2_string2screen)),c
  3748  000B4A  501B               	movf	(??_control_relay+0+0)&0ffh,c,w
  3749  000B4C  6E1C               	movwf	(??_control_relay+1+0)&0ffh,c
  3750  000B4E  0E06               	movlw	low(06h)
  3751  000B50  6E06               	movwf	(0+((c:?i2_string2screen)+01h)),c
  3752  000B52  501C               	movf	(??_control_relay+1+0)&0ffh,c,w
  3753  000B54  0E00               	movlw	high((c:control_relay@buf))
  3754  000B56  6E08               	movwf	(1+((c:?i2_string2screen)+02h)),c
  3755  000B58  0E1D               	movlw	low((c:control_relay@buf))
  3756  000B5A  6E07               	movwf	(0+((c:?i2_string2screen)+02h)),c
  3757  000B5C  EC3B  F009         	call	i2_string2screen	;wreg free
  3758                           opt subtitle "HI-TECH Software Omniscient Code Generator (Lite mode) build 49521"
  3759                           
  3760  000B60  D025               	goto	i2l138
  3761                           opt subtitle "HI-TECH Software Omniscient Code Generator (Lite mode) build 49521"
  3762                           
  3763  000B62                     i2l136:
  3764                           opt subtitle "HI-TECH Software Omniscient Code Generator (Lite mode) build 49521"
  3765                           
  3766                           opt pagewidth 120
  3767                           
  3768  000B62  908B               	bcf	((c:3979)),c,0	;volatile
  3769                           opt subtitle "HI-TECH Software Omniscient Code Generator (Lite mode) build 49521"
  3770                           
  3771  000B64                     i2l1288:
  3772                           opt subtitle "HI-TECH Software Omniscient Code Generator (Lite mode) build 49521"
  3773  000B64  0E00               	movlw	high(0)
  3774  000B66  6E48               	movwf	((c:_ISRUNNING+1)),c
  3775  000B68  0E00               	movlw	low(0)
  3776  000B6A  6E47               	movwf	((c:_ISRUNNING)),c
  3777                           opt subtitle "HI-TECH Software Omniscient Code Generator (Lite mode) build 49521"
  3778                           
  3779  000B6C                     i2l1290:
  3780                           opt subtitle "HI-TECH Software Omniscient Code Generator (Lite mode) build 49521"
  3781  000B6C  908D               	bcf	((c:3981)),c,0	;volatile
  3782                           opt subtitle "HI-TECH Software Omniscient Code Generator (Lite mode) build 49521"
  3783                           
  3784  000B6E                     i2l1292:
  3785                           opt subtitle "HI-TECH Software Omniscient Code Generator (Lite mode) build 49521"
  3786  000B6E  ECE9  F009         	call	i2_clear_screen	;wreg free
  3787                           opt subtitle "HI-TECH Software Omniscient Code Generator (Lite mode) build 49521"
  3788                           
  3789  000B72                     i2l1294:
  3790                           opt subtitle "HI-TECH Software Omniscient Code Generator (Lite mode) build 49521"
  3791  000B72  6E1B               	movwf	(??_control_relay+0+0)&0ffh,c
  3792  000B74  0E01               	movlw	low(01h)
  3793  000B76  6E05               	movwf	((c:?i2_string2screen)),c
  3794  000B78  501B               	movf	(??_control_relay+0+0)&0ffh,c,w
  3795  000B7A  6E1C               	movwf	(??_control_relay+1+0)&0ffh,c
  3796  000B7C  0E00               	movlw	low(0)
  3797  000B7E  6E06               	movwf	(0+((c:?i2_string2screen)+01h)),c
  3798  000B80  501C               	movf	(??_control_relay+1+0)&0ffh,c,w
  3799  000B82  0E08               	movlw	high(STR_4)
  3800  000B84  6E08               	movwf	(1+((c:?i2_string2screen)+02h)),c
  3801  000B86  0E2A               	movlw	low(STR_4)
  3802  000B88  6E07               	movwf	(0+((c:?i2_string2screen)+02h)),c
  3803  000B8A  EC3B  F009         	call	i2_string2screen	;wreg free
  3804                           opt subtitle "HI-TECH Software Omniscient Code Generator (Lite mode) build 49521"
  3805                           
  3806  000B8E                     i2l1296:
  3807                           opt subtitle "HI-TECH Software Omniscient Code Generator (Lite mode) build 49521"
  3808  000B8E  6E1B               	movwf	(??_control_relay+0+0)&0ffh,c
  3809  000B90  0E02               	movlw	low(02h)
  3810  000B92  6E05               	movwf	((c:?i2_string2screen)),c
  3811  000B94  501B               	movf	(??_control_relay+0+0)&0ffh,c,w
  3812  000B96  6E1C               	movwf	(??_control_relay+1+0)&0ffh,c
  3813  000B98  0E00               	movlw	low(0)
  3814  000B9A  6E06               	movwf	(0+((c:?i2_string2screen)+01h)),c
  3815  000B9C  501C               	movf	(??_control_relay+1+0)&0ffh,c,w
  3816  000B9E  0E08               	movlw	high(STR_5)
  3817  000BA0  6E08               	movwf	(1+((c:?i2_string2screen)+02h)),c
  3818  000BA2  0E3F               	movlw	low(STR_5)
  3819  000BA4  6E07               	movwf	(0+((c:?i2_string2screen)+02h)),c
  3820  000BA6  EC3B  F009         	call	i2_string2screen	;wreg free
  3821  000BAA  D000               	goto	i2l138
  3822                           opt subtitle "HI-TECH Software Omniscient Code Generator (Lite mode) build 49521"
  3823                           
  3824  000BAC                     i2l137:
  3825                           opt subtitle "HI-TECH Software Omniscient Code Generator (Lite mode) build 49521"
  3826                           
  3827  000BAC                     i2l138:
  3828  000BAC  0012               	return
  3829                           opt subtitle "HI-TECH Software Omniscient Code Generator (Lite mode) build 49521"
  3830                           
  3831  000BAE                     	__end_of_control_relay:
  3832                           opt subtitle "HI-TECH Software Omniscient Code Generator (Lite mode) build 49521"
  3833                           
  3834                           opt pagewidth 120
  3835                           
  3836                           	opt lm
  3837                           
  3838                           	processor	18F4550
  3839                           porta	equ	0F80h
  3840                           portb	equ	0F81h
  3841                           portc	equ	0F82h
  3842                           portd	equ	0F83h
  3843                           porte	equ	0F84h
  3844                           lata	equ	0F89h
  3845                           latb	equ	0F8Ah
  3846                           latc	equ	0F8Bh
  3847                           latd	equ	0F8Ch
  3848                           late	equ	0F8Dh
  3849                           trisa	equ	0F92h
  3850                           trisb	equ	0F93h
  3851                           trisc	equ	0F94h
  3852                           trisd	equ	0F95h
  3853                           trise	equ	0F96h
  3854                           pie1	equ	0F9Dh
  3855                           pir1	equ	0F9Eh
  3856                           ipr1	equ	0F9Fh
  3857                           pie2	equ	0FA0h
  3858                           pir2	equ	0FA1h
  3859                           ipr2	equ	0FA2h
  3860                           t3con	equ	0FB1h
  3861                           tmr3l	equ	0FB2h
  3862                           tmr3h	equ	0FB3h
  3863                           ccp1con	equ	0FBDh
  3864                           ccpr1l	equ	0FBEh
  3865                           ccpr1h	equ	0FBFh
  3866                           adcon1	equ	0FC1h
  3867                           adcon0	equ	0FC2h
  3868                           adresl	equ	0FC3h
  3869                           adresh	equ	0FC4h
  3870                           sspcon2	equ	0FC5h
  3871  00122C                     __ptext12:
  3872                           opt subtitle "HI-TECH Software Omniscient Code Generator (Lite mode) build 49521"
  3873                           
  3874                           opt pagewidth 120
  3875                           
  3876  0000                     	__size_of_itoa	equ	__end_of_itoa-_itoa
  3877                           opt subtitle "HI-TECH Software Omniscient Code Generator (Lite mode) build 49521"
  3878  00122C                     _itoa:
  3879                           opt subtitle "HI-TECH Software Omniscient Code Generator (Lite mode) build 49521"
  3880                           
  3881                           opt pagewidth 120
  3882  00122C                     i2l1202:
  3883  00122C  C012  F018         	movff	(c:itoa@buf),(c:itoa@cp)
  3884  001230  C013  F019         	movff	(c:itoa@buf+1),(c:itoa@cp+1)
  3885                           opt subtitle "HI-TECH Software Omniscient Code Generator (Lite mode) build 49521"
  3886  001234  AE15               	btfss	((c:itoa@val+1)),c,7
  3887  001236  D001               	goto	i2u31_41
  3888  001238  D001               	goto	i2u31_40
  3889  00123A                     i2u31_41:
  3890  00123A  D00D               	goto	i2l1210
  3891  00123C                     i2u31_40:
  3892                           opt subtitle "HI-TECH Software Omniscient Code Generator (Lite mode) build 49521"
  3893                           
  3894  00123C                     i2l1204:
  3895  00123C  C012  FFD9         	movff	(c:itoa@buf),fsr2l
  3896  001240  C013  FFDA         	movff	(c:itoa@buf+1),fsr2h
  3897  001244  0E2D               	movlw	low(02Dh)
  3898  001246  6EDF               	movwf	indf2
  3899                           opt subtitle "HI-TECH Software Omniscient Code Generator (Lite mode) build 49521"
  3900  001248                     i2l1206:
  3901  001248  4A12               	infsnz	((c:itoa@buf)),c
  3902  00124A  2A13               	incf	((c:itoa@buf+1)),c
  3903                           opt subtitle "HI-TECH Software Omniscient Code Generator (Lite mode) build 49521"
  3904                           
  3905  00124C                     i2l1208:
  3906  00124C  6C14               	negf	((c:itoa@val)),c
  3907  00124E  1E15               	comf	((c:itoa@val+1)),c
  3908  001250  B0D8               	btfsc	status,0
  3909  001252  2A15               	incf	((c:itoa@val+1)),c
  3910  001254  D000               	goto	i2l1210
  3911                           opt subtitle "HI-TECH Software Omniscient Code Generator (Lite mode) build 49521"
  3912                           
  3913  001256                     i2l537:
  3914                           opt subtitle "HI-TECH Software Omniscient Code Generator (Lite mode) build 49521"
  3915                           
  3916  001256                     i2l1210:
  3917  001256  C012  F009         	movff	(c:itoa@buf),(c:?_utoa)
  3918  00125A  C013  F00A         	movff	(c:itoa@buf+1),(c:?_utoa+1)
  3919  00125E  C014  F00B         	movff	(c:itoa@val),0+((c:?_utoa)+02h)
  3920  001262  C015  F00C         	movff	(c:itoa@val+1),1+((c:?_utoa)+02h)
  3921  001266  C016  F00D         	movff	(c:itoa@base),0+((c:?_utoa)+04h)
  3922  00126A  C017  F00E         	movff	(c:itoa@base+1),1+((c:?_utoa)+04h)
  3923  00126E  EC0D  F007         	call	_utoa	;wreg free
  3924  001272  D000               	goto	i2l538
  3925                           opt subtitle "HI-TECH Software Omniscient Code Generator (Lite mode) build 49521"
  3926                           
  3927  001274                     i2l1212:
  3928                           opt subtitle "HI-TECH Software Omniscient Code Generator (Lite mode) build 49521"
  3929                           
  3930                           opt pagewidth 120
  3931  001274                     i2l538:
  3932  001274  0012               	return
  3933                           opt subtitle "HI-TECH Software Omniscient Code Generator (Lite mode) build 49521"
  3934                           
  3935  001276                     	__end_of_itoa:
  3936                           opt subtitle "HI-TECH Software Omniscient Code Generator (Lite mode) build 49521"
  3937                           
  3938                           opt pagewidth 120
  3939                           
  3940                           	opt lm
  3941                           
  3942                           	processor	18F4550
  3943                           porta	equ	0F80h
  3944                           portb	equ	0F81h
  3945                           portc	equ	0F82h
  3946                           portd	equ	0F83h
  3947                           porte	equ	0F84h
  3948                           lata	equ	0F89h
  3949                           latb	equ	0F8Ah
  3950                           latc	equ	0F8Bh
  3951                           latd	equ	0F8Ch
  3952                           late	equ	0F8Dh
  3953                           trisa	equ	0F92h
  3954                           trisb	equ	0F93h
  3955                           trisc	equ	0F94h
  3956                           trisd	equ	0F95h
  3957                           trise	equ	0F96h
  3958                           pie1	equ	0F9Dh
  3959                           pir1	equ	0F9Eh
  3960                           ipr1	equ	0F9Fh
  3961                           pie2	equ	0FA0h
  3962                           pir2	equ	0FA1h
  3963                           ipr2	equ	0FA2h
  3964                           t3con	equ	0FB1h
  3965                           tmr3l	equ	0FB2h
  3966                           tmr3h	equ	0FB3h
  3967                           ccp1con	equ	0FBDh
  3968                           ccpr1l	equ	0FBEh
  3969                           ccpr1h	equ	0FBFh
  3970                           adcon1	equ	0FC1h
  3971                           adcon0	equ	0FC2h
  3972  000D5E                     __ptext13:
  3973                           opt subtitle "HI-TECH Software Omniscient Code Generator (Lite mode) build 49521"
  3974                           
  3975                           opt pagewidth 120
  3976                           
  3977  0000                     	__size_of___awdiv	equ	__end_of___awdiv-___awdiv
  3978                           opt subtitle "HI-TECH Software Omniscient Code Generator (Lite mode) build 49521"
  3979  000D5E                     ___awdiv:
  3980                           opt subtitle "HI-TECH Software Omniscient Code Generator (Lite mode) build 49521"
  3981                           
  3982                           opt pagewidth 120
  3983  000D5E                     i2l1060:
  3984  000D5E  6E0B               	movwf	(??___awdiv+0+0)&0ffh,c
  3985  000D60  0E00               	movlw	low(0)
  3986  000D62  6E0D               	movwf	((c:___awdiv@sign)),c
  3987  000D64  500B               	movf	(??___awdiv+0+0)&0ffh,c,w
  3988                           opt subtitle "HI-TECH Software Omniscient Code Generator (Lite mode) build 49521"
  3989                           
  3990  000D66                     i2l1062:
  3991  000D66  AE0A               	btfss	((c:___awdiv@divisor+1)),c,7
  3992  000D68  D001               	goto	i2u19_41
  3993  000D6A  D001               	goto	i2u19_40
  3994  000D6C                     i2u19_41:
  3995  000D6C  D009               	goto	i2l1068
  3996  000D6E                     i2u19_40:
  3997                           opt subtitle "HI-TECH Software Omniscient Code Generator (Lite mode) build 49521"
  3998                           
  3999  000D6E                     i2l1064:
  4000  000D6E  6C09               	negf	((c:___awdiv@divisor)),c
  4001  000D70  1E0A               	comf	((c:___awdiv@divisor+1)),c
  4002  000D72  B0D8               	btfsc	status,0
  4003  000D74  2A0A               	incf	((c:___awdiv@divisor+1)),c
  4004                           opt subtitle "HI-TECH Software Omniscient Code Generator (Lite mode) build 49521"
  4005                           
  4006  000D76                     i2l1066:
  4007  000D76  6E0B               	movwf	(??___awdiv+0+0)&0ffh,c
  4008  000D78  0E01               	movlw	low(01h)
  4009  000D7A  6E0D               	movwf	((c:___awdiv@sign)),c
  4010  000D7C  500B               	movf	(??___awdiv+0+0)&0ffh,c,w
  4011  000D7E  D000               	goto	i2l1068
  4012                           opt subtitle "HI-TECH Software Omniscient Code Generator (Lite mode) build 49521"
  4013                           
  4014  000D80                     i2l289:
  4015                           opt subtitle "HI-TECH Software Omniscient Code Generator (Lite mode) build 49521"
  4016                           
  4017  000D80                     i2l1068:
  4018  000D80  AE08               	btfss	((c:___awdiv@dividend+1)),c,7
  4019  000D82  D001               	goto	i2u20_41
  4020  000D84  D001               	goto	i2u20_40
  4021  000D86                     i2u20_41:
  4022  000D86  D007               	goto	i2l1074
  4023  000D88                     i2u20_40:
  4024                           opt subtitle "HI-TECH Software Omniscient Code Generator (Lite mode) build 49521"
  4025                           
  4026  000D88                     i2l1070:
  4027  000D88  6C07               	negf	((c:___awdiv@dividend)),c
  4028  000D8A  1E08               	comf	((c:___awdiv@dividend+1)),c
  4029  000D8C  B0D8               	btfsc	status,0
  4030  000D8E  2A08               	incf	((c:___awdiv@dividend+1)),c
  4031                           opt subtitle "HI-TECH Software Omniscient Code Generator (Lite mode) build 49521"
  4032                           
  4033  000D90                     i2l1072:
  4034  000D90  0E01               	movlw	(01h)&0ffh
  4035  000D92  1A0D               	xorwf	((c:___awdiv@sign)),c
  4036  000D94  D000               	goto	i2l1074
  4037                           opt subtitle "HI-TECH Software Omniscient Code Generator (Lite mode) build 49521"
  4038                           
  4039  000D96                     i2l290:
  4040                           opt subtitle "HI-TECH Software Omniscient Code Generator (Lite mode) build 49521"
  4041                           
  4042  000D96                     i2l1074:
  4043  000D96  0E00               	movlw	high(0)
  4044  000D98  6E0F               	movwf	((c:___awdiv@quotient+1)),c
  4045  000D9A  0E00               	movlw	low(0)
  4046  000D9C  6E0E               	movwf	((c:___awdiv@quotient)),c
  4047                           opt subtitle "HI-TECH Software Omniscient Code Generator (Lite mode) build 49521"
  4048                           
  4049  000D9E                     i2l1076:
  4050  000D9E  500A               	movf	((c:___awdiv@divisor+1)),c,w
  4051  000DA0  1009               	iorwf ((c:___awdiv@divisor)),c,w
  4052                           opt subtitle "HI-TECH Software Omniscient Code Generator (Lite mode) build 49521"
  4053  000DA2  B4D8               	btfsc	status,2
  4054  000DA4  D001               	goto	i2u21_41
  4055  000DA6  D001               	goto	i2u21_40
  4056  000DA8                     i2u21_41:
  4057  000DA8  D028               	goto	i2l1096
  4058  000DAA                     i2u21_40:
  4059                           opt subtitle "HI-TECH Software Omniscient Code Generator (Lite mode) build 49521"
  4060                           
  4061  000DAA                     i2l1078:
  4062  000DAA  6E0B               	movwf	(??___awdiv+0+0)&0ffh,c
  4063  000DAC  0E01               	movlw	low(01h)
  4064  000DAE  6E0C               	movwf	((c:___awdiv@counter)),c
  4065  000DB0  500B               	movf	(??___awdiv+0+0)&0ffh,c,w
  4066                           opt subtitle "HI-TECH Software Omniscient Code Generator (Lite mode) build 49521"
  4067  000DB2  D005               	goto	i2l1082
  4068                           opt subtitle "HI-TECH Software Omniscient Code Generator (Lite mode) build 49521"
  4069  000DB4                     i2l293:
  4070                           opt subtitle "HI-TECH Software Omniscient Code Generator (Lite mode) build 49521"
  4071                           
  4072  000DB4                     i2l1080:
  4073  000DB4  90D8               	bcf	status,0
  4074  000DB6  3609               	rlcf	((c:___awdiv@divisor)),c
  4075  000DB8  360A               	rlcf	((c:___awdiv@divisor+1)),c
  4076                           opt subtitle "HI-TECH Software Omniscient Code Generator (Lite mode) build 49521"
  4077  000DBA  2A0C               	incf	((c:___awdiv@counter)),c
  4078  000DBC  D000               	goto	i2l1082
  4079                           opt subtitle "HI-TECH Software Omniscient Code Generator (Lite mode) build 49521"
  4080                           
  4081  000DBE                     i2l292:
  4082                           opt subtitle "HI-TECH Software Omniscient Code Generator (Lite mode) build 49521"
  4083                           
  4084  000DBE                     i2l1082:
  4085                           opt subtitle "HI-TECH Software Omniscient Code Generator (Lite mode) build 49521"
  4086  000DBE  AE0A               	btfss	((c:___awdiv@divisor+1)),c,(15)&7
  4087  000DC0  D001               	goto	i2u22_41
  4088  000DC2  D001               	goto	i2u22_40
  4089  000DC4                     i2u22_41:
  4090  000DC4  D7F7               	goto	i2l1080
  4091  000DC6                     i2u22_40:
  4092  000DC6  D001               	goto	i2l1084
  4093                           opt subtitle "HI-TECH Software Omniscient Code Generator (Lite mode) build 49521"
  4094  000DC8                     i2l294:
  4095  000DC8  D000               	goto	i2l1084
  4096                           opt subtitle "HI-TECH Software Omniscient Code Generator (Lite mode) build 49521"
  4097                           
  4098  000DCA                     i2l295:
  4099                           opt subtitle "HI-TECH Software Omniscient Code Generator (Lite mode) build 49521"
  4100                           
  4101  000DCA                     i2l1084:
  4102  000DCA  90D8               	bcf	status,0
  4103  000DCC  360E               	rlcf	((c:___awdiv@quotient)),c
  4104  000DCE  360F               	rlcf	((c:___awdiv@quotient+1)),c
  4105                           opt subtitle "HI-TECH Software Omniscient Code Generator (Lite mode) build 49521"
  4106                           
  4107  000DD0                     i2l1086:
  4108  000DD0  5009               	movf	((c:___awdiv@divisor)),c,w
  4109  000DD2  5C07               	subwf	((c:___awdiv@dividend)),c,w
  4110  000DD4  500A               	movf	((c:___awdiv@divisor+1)),c,w
  4111  000DD6  5808               	subwfb	((c:___awdiv@dividend+1)),c,w
  4112  000DD8  A0D8               	btfss	status,0
  4113  000DDA  D001               	goto	i2u23_41
  4114  000DDC  D001               	goto	i2u23_40
  4115  000DDE                     i2u23_41:
  4116  000DDE  D006               	goto	i2l1092
  4117  000DE0                     i2u23_40:
  4118                           opt subtitle "HI-TECH Software Omniscient Code Generator (Lite mode) build 49521"
  4119                           
  4120  000DE0                     i2l1088:
  4121  000DE0  5009               	movf	((c:___awdiv@divisor)),c,w
  4122  000DE2  5E07               	subwf	((c:___awdiv@dividend)),c
  4123  000DE4  500A               	movf	((c:___awdiv@divisor+1)),c,w
  4124  000DE6  5A08               	subwfb	((c:___awdiv@dividend+1)),c
  4125                           opt subtitle "HI-TECH Software Omniscient Code Generator (Lite mode) build 49521"
  4126                           
  4127                           opt pagewidth 120
  4128  000DE8                     i2l1090:
  4129  000DE8  800E               	bsf	(0+(0/8)+(c:___awdiv@quotient)),c,(0)&7
  4130  000DEA  D000               	goto	i2l1092
  4131                           opt subtitle "HI-TECH Software Omniscient Code Generator (Lite mode) build 49521"
  4132                           
  4133  000DEC                     i2l296:
  4134                           opt subtitle "HI-TECH Software Omniscient Code Generator (Lite mode) build 49521"
  4135                           
  4136  000DEC                     i2l1092:
  4137  000DEC  90D8               	bcf	status,0
  4138  000DEE  320A               	rrcf	((c:___awdiv@divisor+1)),c
  4139  000DF0  3209               	rrcf	((c:___awdiv@divisor)),c
  4140                           opt subtitle "HI-TECH Software Omniscient Code Generator (Lite mode) build 49521"
  4141                           
  4142  000DF2                     i2l1094:
  4143  000DF2  2E0C               	decfsz	((c:___awdiv@counter)),c
  4144                           opt subtitle "HI-TECH Software Omniscient Code Generator (Lite mode) build 49521"
  4145  000DF4  D7EA               	goto	i2l1084
  4146  000DF6  D001               	goto	i2l1096
  4147                           opt subtitle "HI-TECH Software Omniscient Code Generator (Lite mode) build 49521"
  4148  000DF8                     i2l297:
  4149  000DF8  D000               	goto	i2l1096
  4150                           opt subtitle "HI-TECH Software Omniscient Code Generator (Lite mode) build 49521"
  4151                           
  4152  000DFA                     i2l291:
  4153                           opt subtitle "HI-TECH Software Omniscient Code Generator (Lite mode) build 49521"
  4154                           
  4155  000DFA                     i2l1096:
  4156  000DFA  500D               	movf	((c:___awdiv@sign)),c,w
  4157  000DFC  B4D8               	btfsc	status,2
  4158  000DFE  D001               	goto	i2u24_41
  4159  000E00  D001               	goto	i2u24_40
  4160  000E02                     i2u24_41:
  4161  000E02  D005               	goto	i2l1100
  4162  000E04                     i2u24_40:
  4163                           opt subtitle "HI-TECH Software Omniscient Code Generator (Lite mode) build 49521"
  4164                           
  4165  000E04                     i2l1098:
  4166  000E04  6C0E               	negf	((c:___awdiv@quotient)),c
  4167  000E06  1E0F               	comf	((c:___awdiv@quotient+1)),c
  4168  000E08  B0D8               	btfsc	status,0
  4169  000E0A  2A0F               	incf	((c:___awdiv@quotient+1)),c
  4170  000E0C  D000               	goto	i2l1100
  4171                           opt subtitle "HI-TECH Software Omniscient Code Generator (Lite mode) build 49521"
  4172  000E0E                     i2l298:
  4173                           opt subtitle "HI-TECH Software Omniscient Code Generator (Lite mode) build 49521"
  4174                           
  4175  000E0E                     i2l1100:
  4176  000E0E  C00E  F007         	movff	(c:___awdiv@quotient),(c:?___awdiv)
  4177  000E12  C00F  F008         	movff	(c:___awdiv@quotient+1),(c:?___awdiv+1)
  4178  000E16  D000               	goto	i2l299
  4179                           opt subtitle "HI-TECH Software Omniscient Code Generator (Lite mode) build 49521"
  4180  000E18                     i2l1102:
  4181                           opt subtitle "HI-TECH Software Omniscient Code Generator (Lite mode) build 49521"
  4182                           
  4183  000E18                     i2l299:
  4184  000E18  0012               	return
  4185                           opt subtitle "HI-TECH Software Omniscient Code Generator (Lite mode) build 49521"
  4186                           
  4187  000E1A                     	__end_of___awdiv:
  4188                           opt subtitle "HI-TECH Software Omniscient Code Generator (Lite mode) build 49521"
  4189                           
  4190                           opt pagewidth 120
  4191                           
  4192                           	opt lm
  4193                           
  4194                           	processor	18F4550
  4195                           porta	equ	0F80h
  4196                           portb	equ	0F81h
  4197                           portc	equ	0F82h
  4198                           portd	equ	0F83h
  4199                           porte	equ	0F84h
  4200                           lata	equ	0F89h
  4201                           latb	equ	0F8Ah
  4202                           latc	equ	0F8Bh
  4203                           latd	equ	0F8Ch
  4204                           late	equ	0F8Dh
  4205                           trisa	equ	0F92h
  4206                           trisb	equ	0F93h
  4207                           trisc	equ	0F94h
  4208                           trisd	equ	0F95h
  4209                           trise	equ	0F96h
  4210                           pie1	equ	0F9Dh
  4211                           pir1	equ	0F9Eh
  4212                           ipr1	equ	0F9Fh
  4213                           pie2	equ	0FA0h
  4214                           pir2	equ	0FA1h
  4215                           ipr2	equ	0FA2h
  4216                           t3con	equ	0FB1h
  4217                           tmr3l	equ	0FB2h
  4218                           tmr3h	equ	0FB3h
  4219                           ccp1con	equ	0FBDh
  4220                           ccpr1l	equ	0FBEh
  4221                           ccpr1h	equ	0FBFh
  4222                           adcon1	equ	0FC1h
  4223                           adcon0	equ	0FC2h
  4224                           adresl	equ	0FC3h
  4225                           adresh	equ	0FC4h
  4226                           sspcon2	equ	0FC5h
  4227  000E1A                     __ptext14:
  4228                           opt subtitle "HI-TECH Software Omniscient Code Generator (Lite mode) build 49521"
  4229                           
  4230                           opt pagewidth 120
  4231                           
  4232  0000                     	__size_of_utoa	equ	__end_of_utoa-_utoa
  4233                           opt subtitle "HI-TECH Software Omniscient Code Generator (Lite mode) build 49521"
  4234  000E1A                     _utoa:
  4235                           opt subtitle "HI-TECH Software Omniscient Code Generator (Lite mode) build 49521"
  4236                           
  4237                           opt pagewidth 120
  4238  000E1A                     i2l1104:
  4239  000E1A  C00B  F00F         	movff	(c:utoa@val),(c:utoa@v)
  4240  000E1E  C00C  F010         	movff	(c:utoa@val+1),(c:utoa@v+1)
  4241  000E22  D000               	goto	i2l1106
  4242                           opt subtitle "HI-TECH Software Omniscient Code Generator (Lite mode) build 49521"
  4243                           
  4244  000E24                     i2l541:
  4245                           opt subtitle "HI-TECH Software Omniscient Code Generator (Lite mode) build 49521"
  4246                           
  4247  000E24                     i2l1106:
  4248  000E24  C00F  F001         	movff	(c:utoa@v),(c:?___lwdiv)
  4249  000E28  C010  F002         	movff	(c:utoa@v+1),(c:?___lwdiv+1)
  4250  000E2C  C00D  F003         	movff	(c:utoa@base),0+((c:?___lwdiv)+02h)
  4251  000E30  C00E  F004         	movff	(c:utoa@base+1),1+((c:?___lwdiv)+02h)
  4252  000E34  EC20  F008         	call	___lwdiv	;wreg free
  4253  000E38  C001  F00F         	movff	0+?___lwdiv,(c:utoa@v)
  4254  000E3C  C002  F010         	movff	1+?___lwdiv,(c:utoa@v+1)
  4255                           opt subtitle "HI-TECH Software Omniscient Code Generator (Lite mode) build 49521"
  4256                           
  4257  000E40                     i2l1108:
  4258  000E40  4A09               	infsnz	((c:utoa@buf)),c
  4259  000E42  2A0A               	incf	((c:utoa@buf+1)),c
  4260                           opt subtitle "HI-TECH Software Omniscient Code Generator (Lite mode) build 49521"
  4261                           
  4262  000E44                     i2l1110:
  4263  000E44  5010               	movf	((c:utoa@v+1)),c,w
  4264  000E46  100F               	iorwf ((c:utoa@v)),c,w
  4265                           opt subtitle "HI-TECH Software Omniscient Code Generator (Lite mode) build 49521"
  4266  000E48  A4D8               	btfss	status,2
  4267  000E4A  D001               	goto	i2u25_41
  4268  000E4C  D001               	goto	i2u25_40
  4269  000E4E                     i2u25_41:
  4270  000E4E  D7EA               	goto	i2l1106
  4271  000E50                     i2u25_40:
  4272  000E50  D000               	goto	i2l1112
  4273                           opt subtitle "HI-TECH Software Omniscient Code Generator (Lite mode) build 49521"
  4274  000E52                     i2l542:
  4275                           opt subtitle "HI-TECH Software Omniscient Code Generator (Lite mode) build 49521"
  4276                           
  4277  000E52                     i2l1112:
  4278  000E52  C009  FFD9         	movff	(c:utoa@buf),fsr2l
  4279  000E56  C00A  FFDA         	movff	(c:utoa@buf+1),fsr2h
  4280  000E5A  0E00               	movlw	low(0)
  4281  000E5C  6EDF               	movwf	indf2
  4282                           opt subtitle "HI-TECH Software Omniscient Code Generator (Lite mode) build 49521"
  4283  000E5E                     i2l1114:
  4284  000E5E  0609               	decf	((c:utoa@buf)),c
  4285  000E60  A0D8               	btfss	status,0
  4286  000E62  060A               	decf	((c:utoa@buf+1)),c
  4287  000E64  D000               	goto	i2l1116
  4288                           opt subtitle "HI-TECH Software Omniscient Code Generator (Lite mode) build 49521"
  4289                           
  4290  000E66                     i2l543:
  4291                           opt subtitle "HI-TECH Software Omniscient Code Generator (Lite mode) build 49521"
  4292                           
  4293  000E66                     i2l1116:
  4294  000E66  C00B  F001         	movff	(c:utoa@val),(c:?___lwmod)
  4295  000E6A  C00C  F002         	movff	(c:utoa@val+1),(c:?___lwmod+1)
  4296  000E6E  C00D  F003         	movff	(c:utoa@base),0+((c:?___lwmod)+02h)
  4297  000E72  C00E  F004         	movff	(c:utoa@base+1),1+((c:?___lwmod)+02h)
  4298  000E76  ECBE  F008         	call	___lwmod	;wreg free
  4299  000E7A  5001               	movf	(0+?___lwmod),c,w
  4300  000E7C  6E11               	movwf	((c:utoa@c)),c
  4301                           opt subtitle "HI-TECH Software Omniscient Code Generator (Lite mode) build 49521"
  4302                           
  4303  000E7E                     i2l1118:
  4304  000E7E  C00B  F001         	movff	(c:utoa@val),(c:?___lwdiv)
  4305  000E82  C00C  F002         	movff	(c:utoa@val+1),(c:?___lwdiv+1)
  4306  000E86  C00D  F003         	movff	(c:utoa@base),0+((c:?___lwdiv)+02h)
  4307  000E8A  C00E  F004         	movff	(c:utoa@base+1),1+((c:?___lwdiv)+02h)
  4308  000E8E  EC20  F008         	call	___lwdiv	;wreg free
  4309  000E92  C001  F00B         	movff	0+?___lwdiv,(c:utoa@val)
  4310  000E96  C002  F00C         	movff	1+?___lwdiv,(c:utoa@val+1)
  4311                           opt subtitle "HI-TECH Software Omniscient Code Generator (Lite mode) build 49521"
  4312                           
  4313  000E9A                     i2l1120:
  4314  000E9A  0E09               	movlw	(0Ah-1)
  4315  000E9C  6411               	cpfsgt	((c:utoa@c)),c
  4316  000E9E  D001               	goto	i2u26_41
  4317  000EA0  D001               	goto	i2u26_40
  4318  000EA2                     i2u26_41:
  4319  000EA2  D002               	goto	i2l544
  4320  000EA4                     i2u26_40:
  4321                           opt subtitle "HI-TECH Software Omniscient Code Generator (Lite mode) build 49521"
  4322                           
  4323  000EA4                     i2l1122:
  4324  000EA4  0E07               	movlw	(07h)&0ffh
  4325  000EA6  2611               	addwf	((c:utoa@c)),c
  4326                           opt subtitle "HI-TECH Software Omniscient Code Generator (Lite mode) build 49521"
  4327  000EA8                     i2l544:
  4328                           opt subtitle "HI-TECH Software Omniscient Code Generator (Lite mode) build 49521"
  4329  000EA8  0E30               	movlw	(030h)&0ffh
  4330  000EAA  2611               	addwf	((c:utoa@c)),c
  4331                           opt subtitle "HI-TECH Software Omniscient Code Generator (Lite mode) build 49521"
  4332                           
  4333  000EAC                     i2l1124:
  4334  000EAC  C009  FFD9         	movff	(c:utoa@buf),fsr2l
  4335  000EB0  C00A  FFDA         	movff	(c:utoa@buf+1),fsr2h
  4336  000EB4  C011  FFDF         	movff	(c:utoa@c),indf2
  4337                           opt subtitle "HI-TECH Software Omniscient Code Generator (Lite mode) build 49521"
  4338                           
  4339  000EB8                     i2l1126:
  4340  000EB8  0609               	decf	((c:utoa@buf)),c
  4341  000EBA  A0D8               	btfss	status,0
  4342  000EBC  060A               	decf	((c:utoa@buf+1)),c
  4343                           opt subtitle "HI-TECH Software Omniscient Code Generator (Lite mode) build 49521"
  4344                           
  4345  000EBE                     i2l1128:
  4346  000EBE  500C               	movf	((c:utoa@val+1)),c,w
  4347  000EC0  100B               	iorwf ((c:utoa@val)),c,w
  4348                           opt subtitle "HI-TECH Software Omniscient Code Generator (Lite mode) build 49521"
  4349  000EC2  A4D8               	btfss	status,2
  4350  000EC4  D001               	goto	i2u27_41
  4351  000EC6  D001               	goto	i2u27_40
  4352  000EC8                     i2u27_41:
  4353  000EC8  D7CE               	goto	i2l1116
  4354  000ECA                     i2u27_40:
  4355  000ECA  D000               	goto	i2l546
  4356                           opt subtitle "HI-TECH Software Omniscient Code Generator (Lite mode) build 49521"
  4357  000ECC                     i2l545:
  4358                           opt subtitle "HI-TECH Software Omniscient Code Generator (Lite mode) build 49521"
  4359                           
  4360                           opt pagewidth 120
  4361  000ECC                     i2l546:
  4362  000ECC  0012               	return
  4363                           opt subtitle "HI-TECH Software Omniscient Code Generator (Lite mode) build 49521"
  4364                           
  4365  000ECE                     	__end_of_utoa:
  4366                           opt subtitle "HI-TECH Software Omniscient Code Generator (Lite mode) build 49521"
  4367                           
  4368                           opt pagewidth 120
  4369                           
  4370                           	opt lm
  4371                           
  4372                           	processor	18F4550
  4373                           porta	equ	0F80h
  4374                           portb	equ	0F81h
  4375                           portc	equ	0F82h
  4376                           portd	equ	0F83h
  4377                           porte	equ	0F84h
  4378                           lata	equ	0F89h
  4379                           latb	equ	0F8Ah
  4380                           latc	equ	0F8Bh
  4381                           latd	equ	0F8Ch
  4382                           late	equ	0F8Dh
  4383                           trisa	equ	0F92h
  4384                           trisb	equ	0F93h
  4385                           trisc	equ	0F94h
  4386                           trisd	equ	0F95h
  4387                           trise	equ	0F96h
  4388                           pie1	equ	0F9Dh
  4389                           pir1	equ	0F9Eh
  4390                           ipr1	equ	0F9Fh
  4391                           pie2	equ	0FA0h
  4392                           pir2	equ	0FA1h
  4393                           ipr2	equ	0FA2h
  4394                           t3con	equ	0FB1h
  4395                           tmr3l	equ	0FB2h
  4396                           tmr3h	equ	0FB3h
  4397                           ccp1con	equ	0FBDh
  4398                           ccpr1l	equ	0FBEh
  4399                           ccpr1h	equ	0FBFh
  4400                           adcon1	equ	0FC1h
  4401  001040                     __ptext15:
  4402                           opt subtitle "HI-TECH Software Omniscient Code Generator (Lite mode) build 49521"
  4403                           
  4404                           opt pagewidth 120
  4405                           
  4406  0000                     	__size_of___lwdiv	equ	__end_of___lwdiv-___lwdiv
  4407                           opt subtitle "HI-TECH Software Omniscient Code Generator (Lite mode) build 49521"
  4408  001040                     ___lwdiv:
  4409                           opt subtitle "HI-TECH Software Omniscient Code Generator (Lite mode) build 49521"
  4410                           
  4411                           opt pagewidth 120
  4412  001040                     i2l1012:
  4413  001040  0E00               	movlw	high(0)
  4414  001042  6E07               	movwf	((c:___lwdiv@quotient+1)),c
  4415  001044  0E00               	movlw	low(0)
  4416  001046  6E06               	movwf	((c:___lwdiv@quotient)),c
  4417                           opt subtitle "HI-TECH Software Omniscient Code Generator (Lite mode) build 49521"
  4418                           
  4419  001048                     i2l1014:
  4420  001048  5004               	movf	((c:___lwdiv@divisor+1)),c,w
  4421  00104A  1003               	iorwf ((c:___lwdiv@divisor)),c,w
  4422                           opt subtitle "HI-TECH Software Omniscient Code Generator (Lite mode) build 49521"
  4423  00104C  B4D8               	btfsc	status,2
  4424  00104E  D001               	goto	i2u11_41
  4425  001050  D001               	goto	i2u11_40
  4426  001052                     i2u11_41:
  4427  001052  D027               	goto	i2l644
  4428  001054                     i2u11_40:
  4429                           opt subtitle "HI-TECH Software Omniscient Code Generator (Lite mode) build 49521"
  4430                           
  4431  001054                     i2l1016:
  4432  001054  6E05               	movwf	(??___lwdiv+0+0)&0ffh,c
  4433  001056  0E01               	movlw	low(01h)
  4434  001058  6E08               	movwf	((c:___lwdiv@counter)),c
  4435  00105A  5005               	movf	(??___lwdiv+0+0)&0ffh,c,w
  4436                           opt subtitle "HI-TECH Software Omniscient Code Generator (Lite mode) build 49521"
  4437  00105C  D005               	goto	i2l1020
  4438                           opt subtitle "HI-TECH Software Omniscient Code Generator (Lite mode) build 49521"
  4439  00105E                     i2l646:
  4440                           opt subtitle "HI-TECH Software Omniscient Code Generator (Lite mode) build 49521"
  4441                           
  4442  00105E                     i2l1018:
  4443  00105E  90D8               	bcf	status,0
  4444  001060  3603               	rlcf	((c:___lwdiv@divisor)),c
  4445  001062  3604               	rlcf	((c:___lwdiv@divisor+1)),c
  4446                           opt subtitle "HI-TECH Software Omniscient Code Generator (Lite mode) build 49521"
  4447  001064  2A08               	incf	((c:___lwdiv@counter)),c
  4448  001066  D000               	goto	i2l1020
  4449                           opt subtitle "HI-TECH Software Omniscient Code Generator (Lite mode) build 49521"
  4450                           
  4451  001068                     i2l645:
  4452                           opt subtitle "HI-TECH Software Omniscient Code Generator (Lite mode) build 49521"
  4453                           
  4454  001068                     i2l1020:
  4455                           opt subtitle "HI-TECH Software Omniscient Code Generator (Lite mode) build 49521"
  4456  001068  AE04               	btfss	((c:___lwdiv@divisor+1)),c,(15)&7
  4457  00106A  D001               	goto	i2u12_41
  4458  00106C  D001               	goto	i2u12_40
  4459  00106E                     i2u12_41:
  4460  00106E  D7F7               	goto	i2l1018
  4461  001070                     i2u12_40:
  4462  001070  D001               	goto	i2l1022
  4463                           opt subtitle "HI-TECH Software Omniscient Code Generator (Lite mode) build 49521"
  4464  001072                     i2l647:
  4465  001072  D000               	goto	i2l1022
  4466                           opt subtitle "HI-TECH Software Omniscient Code Generator (Lite mode) build 49521"
  4467                           
  4468  001074                     i2l648:
  4469                           opt subtitle "HI-TECH Software Omniscient Code Generator (Lite mode) build 49521"
  4470                           
  4471  001074                     i2l1022:
  4472  001074  90D8               	bcf	status,0
  4473  001076  3606               	rlcf	((c:___lwdiv@quotient)),c
  4474  001078  3607               	rlcf	((c:___lwdiv@quotient+1)),c
  4475                           opt subtitle "HI-TECH Software Omniscient Code Generator (Lite mode) build 49521"
  4476                           
  4477  00107A                     i2l1024:
  4478  00107A  5003               	movf	((c:___lwdiv@divisor)),c,w
  4479  00107C  5C01               	subwf	((c:___lwdiv@dividend)),c,w
  4480  00107E  5004               	movf	((c:___lwdiv@divisor+1)),c,w
  4481  001080  5802               	subwfb	((c:___lwdiv@dividend+1)),c,w
  4482  001082  A0D8               	btfss	status,0
  4483  001084  D001               	goto	i2u13_41
  4484  001086  D001               	goto	i2u13_40
  4485  001088                     i2u13_41:
  4486  001088  D006               	goto	i2l1030
  4487  00108A                     i2u13_40:
  4488                           opt subtitle "HI-TECH Software Omniscient Code Generator (Lite mode) build 49521"
  4489                           
  4490  00108A                     i2l1026:
  4491  00108A  5003               	movf	((c:___lwdiv@divisor)),c,w
  4492  00108C  5E01               	subwf	((c:___lwdiv@dividend)),c
  4493  00108E  5004               	movf	((c:___lwdiv@divisor+1)),c,w
  4494  001090  5A02               	subwfb	((c:___lwdiv@dividend+1)),c
  4495                           opt subtitle "HI-TECH Software Omniscient Code Generator (Lite mode) build 49521"
  4496                           
  4497                           opt pagewidth 120
  4498  001092                     i2l1028:
  4499  001092  8006               	bsf	(0+(0/8)+(c:___lwdiv@quotient)),c,(0)&7
  4500  001094  D000               	goto	i2l1030
  4501                           opt subtitle "HI-TECH Software Omniscient Code Generator (Lite mode) build 49521"
  4502                           
  4503  001096                     i2l649:
  4504                           opt subtitle "HI-TECH Software Omniscient Code Generator (Lite mode) build 49521"
  4505                           
  4506  001096                     i2l1030:
  4507  001096  90D8               	bcf	status,0
  4508  001098  3204               	rrcf	((c:___lwdiv@divisor+1)),c
  4509  00109A  3203               	rrcf	((c:___lwdiv@divisor)),c
  4510                           opt subtitle "HI-TECH Software Omniscient Code Generator (Lite mode) build 49521"
  4511                           
  4512  00109C                     i2l1032:
  4513  00109C  2E08               	decfsz	((c:___lwdiv@counter)),c
  4514                           opt subtitle "HI-TECH Software Omniscient Code Generator (Lite mode) build 49521"
  4515  00109E  D7EA               	goto	i2l1022
  4516  0010A0  D000               	goto	i2l644
  4517                           opt subtitle "HI-TECH Software Omniscient Code Generator (Lite mode) build 49521"
  4518  0010A2                     i2l650:
  4519                           opt subtitle "HI-TECH Software Omniscient Code Generator (Lite mode) build 49521"
  4520                           
  4521  0010A2                     i2l644:
  4522                           opt subtitle "HI-TECH Software Omniscient Code Generator (Lite mode) build 49521"
  4523  0010A2  C006  F001         	movff	(c:___lwdiv@quotient),(c:?___lwdiv)
  4524  0010A6  C007  F002         	movff	(c:___lwdiv@quotient+1),(c:?___lwdiv+1)
  4525                           opt subtitle "HI-TECH Software Omniscient Code Generator (Lite mode) build 49521"
  4526                           
  4527  0010AA                     i2l651:
  4528  0010AA  0012               	return
  4529                           opt subtitle "HI-TECH Software Omniscient Code Generator (Lite mode) build 49521"
  4530                           
  4531  0010AC                     	__end_of___lwdiv:
  4532                           opt subtitle "HI-TECH Software Omniscient Code Generator (Lite mode) build 49521"
  4533                           
  4534                           opt pagewidth 120
  4535                           
  4536                           	opt lm
  4537                           
  4538                           	processor	18F4550
  4539                           porta	equ	0F80h
  4540                           portb	equ	0F81h
  4541                           portc	equ	0F82h
  4542                           portd	equ	0F83h
  4543                           porte	equ	0F84h
  4544                           lata	equ	0F89h
  4545                           latb	equ	0F8Ah
  4546                           latc	equ	0F8Bh
  4547                           latd	equ	0F8Ch
  4548                           late	equ	0F8Dh
  4549                           trisa	equ	0F92h
  4550                           trisb	equ	0F93h
  4551                           trisc	equ	0F94h
  4552                           trisd	equ	0F95h
  4553                           trise	equ	0F96h
  4554                           pie1	equ	0F9Dh
  4555                           pir1	equ	0F9Eh
  4556                           ipr1	equ	0F9Fh
  4557                           pie2	equ	0FA0h
  4558                           pir2	equ	0FA1h
  4559                           ipr2	equ	0FA2h
  4560                           t3con	equ	0FB1h
  4561                           tmr3l	equ	0FB2h
  4562                           tmr3h	equ	0FB3h
  4563                           ccp1con	equ	0FBDh
  4564                           ccpr1l	equ	0FBEh
  4565                           ccpr1h	equ	0FBFh
  4566  00117C                     __ptext16:
  4567                           opt subtitle "HI-TECH Software Omniscient Code Generator (Lite mode) build 49521"
  4568                           
  4569                           opt pagewidth 120
  4570                           
  4571  0000                     	__size_of___lwmod	equ	__end_of___lwmod-___lwmod
  4572                           opt subtitle "HI-TECH Software Omniscient Code Generator (Lite mode) build 49521"
  4573  00117C                     ___lwmod:
  4574                           opt subtitle "HI-TECH Software Omniscient Code Generator (Lite mode) build 49521"
  4575                           
  4576                           opt pagewidth 120
  4577  00117C                     i2l1034:
  4578  00117C  5004               	movf	((c:___lwmod@divisor+1)),c,w
  4579  00117E  1003               	iorwf ((c:___lwmod@divisor)),c,w
  4580                           opt subtitle "HI-TECH Software Omniscient Code Generator (Lite mode) build 49521"
  4581  001180  B4D8               	btfsc	status,2
  4582  001182  D001               	goto	i2u14_41
  4583  001184  D001               	goto	i2u14_40
  4584  001186                     i2u14_41:
  4585  001186  D023               	goto	i2l654
  4586  001188                     i2u14_40:
  4587                           opt subtitle "HI-TECH Software Omniscient Code Generator (Lite mode) build 49521"
  4588                           
  4589  001188                     i2l1036:
  4590  001188  6E05               	movwf	(??___lwmod+0+0)&0ffh,c
  4591  00118A  0E01               	movlw	low(01h)
  4592  00118C  6E06               	movwf	((c:___lwmod@counter)),c
  4593  00118E  5005               	movf	(??___lwmod+0+0)&0ffh,c,w
  4594                           opt subtitle "HI-TECH Software Omniscient Code Generator (Lite mode) build 49521"
  4595  001190  D005               	goto	i2l1040
  4596                           opt subtitle "HI-TECH Software Omniscient Code Generator (Lite mode) build 49521"
  4597  001192                     i2l656:
  4598                           opt subtitle "HI-TECH Software Omniscient Code Generator (Lite mode) build 49521"
  4599                           
  4600  001192                     i2l1038:
  4601  001192  90D8               	bcf	status,0
  4602  001194  3603               	rlcf	((c:___lwmod@divisor)),c
  4603  001196  3604               	rlcf	((c:___lwmod@divisor+1)),c
  4604                           opt subtitle "HI-TECH Software Omniscient Code Generator (Lite mode) build 49521"
  4605  001198  2A06               	incf	((c:___lwmod@counter)),c
  4606  00119A  D000               	goto	i2l1040
  4607                           opt subtitle "HI-TECH Software Omniscient Code Generator (Lite mode) build 49521"
  4608                           
  4609  00119C                     i2l655:
  4610                           opt subtitle "HI-TECH Software Omniscient Code Generator (Lite mode) build 49521"
  4611                           
  4612  00119C                     i2l1040:
  4613                           opt subtitle "HI-TECH Software Omniscient Code Generator (Lite mode) build 49521"
  4614  00119C  AE04               	btfss	((c:___lwmod@divisor+1)),c,(15)&7
  4615  00119E  D001               	goto	i2u15_41
  4616  0011A0  D001               	goto	i2u15_40
  4617  0011A2                     i2u15_41:
  4618  0011A2  D7F7               	goto	i2l1038
  4619  0011A4                     i2u15_40:
  4620  0011A4  D001               	goto	i2l1042
  4621                           opt subtitle "HI-TECH Software Omniscient Code Generator (Lite mode) build 49521"
  4622  0011A6                     i2l657:
  4623  0011A6  D000               	goto	i2l1042
  4624                           opt subtitle "HI-TECH Software Omniscient Code Generator (Lite mode) build 49521"
  4625                           
  4626  0011A8                     i2l658:
  4627                           opt subtitle "HI-TECH Software Omniscient Code Generator (Lite mode) build 49521"
  4628                           
  4629  0011A8                     i2l1042:
  4630  0011A8  5003               	movf	((c:___lwmod@divisor)),c,w
  4631  0011AA  5C01               	subwf	((c:___lwmod@dividend)),c,w
  4632  0011AC  5004               	movf	((c:___lwmod@divisor+1)),c,w
  4633  0011AE  5802               	subwfb	((c:___lwmod@dividend+1)),c,w
  4634  0011B0  A0D8               	btfss	status,0
  4635  0011B2  D001               	goto	i2u16_41
  4636  0011B4  D001               	goto	i2u16_40
  4637  0011B6                     i2u16_41:
  4638  0011B6  D005               	goto	i2l1046
  4639  0011B8                     i2u16_40:
  4640                           opt subtitle "HI-TECH Software Omniscient Code Generator (Lite mode) build 49521"
  4641                           
  4642  0011B8                     i2l1044:
  4643  0011B8  5003               	movf	((c:___lwmod@divisor)),c,w
  4644  0011BA  5E01               	subwf	((c:___lwmod@dividend)),c
  4645  0011BC  5004               	movf	((c:___lwmod@divisor+1)),c,w
  4646  0011BE  5A02               	subwfb	((c:___lwmod@dividend+1)),c
  4647                           opt subtitle "HI-TECH Software Omniscient Code Generator (Lite mode) build 49521"
  4648  0011C0  D000               	goto	i2l1046
  4649                           opt subtitle "HI-TECH Software Omniscient Code Generator (Lite mode) build 49521"
  4650  0011C2                     i2l659:
  4651                           opt subtitle "HI-TECH Software Omniscient Code Generator (Lite mode) build 49521"
  4652                           
  4653  0011C2                     i2l1046:
  4654  0011C2  90D8               	bcf	status,0
  4655  0011C4  3204               	rrcf	((c:___lwmod@divisor+1)),c
  4656  0011C6  3203               	rrcf	((c:___lwmod@divisor)),c
  4657                           opt subtitle "HI-TECH Software Omniscient Code Generator (Lite mode) build 49521"
  4658                           
  4659  0011C8                     i2l1048:
  4660  0011C8  2E06               	decfsz	((c:___lwmod@counter)),c
  4661                           opt subtitle "HI-TECH Software Omniscient Code Generator (Lite mode) build 49521"
  4662  0011CA  D7EE               	goto	i2l1042
  4663  0011CC  D000               	goto	i2l654
  4664                           opt subtitle "HI-TECH Software Omniscient Code Generator (Lite mode) build 49521"
  4665  0011CE                     i2l660:
  4666                           opt subtitle "HI-TECH Software Omniscient Code Generator (Lite mode) build 49521"
  4667                           
  4668  0011CE                     i2l654:
  4669                           opt subtitle "HI-TECH Software Omniscient Code Generator (Lite mode) build 49521"
  4670  0011CE  C001  F001         	movff	(c:___lwmod@dividend),(c:?___lwmod)
  4671  0011D2  C002  F002         	movff	(c:___lwmod@dividend+1),(c:?___lwmod+1)
  4672                           opt subtitle "HI-TECH Software Omniscient Code Generator (Lite mode) build 49521"
  4673                           
  4674  0011D6                     i2l661:
  4675  0011D6  0012               	return
  4676                           opt subtitle "HI-TECH Software Omniscient Code Generator (Lite mode) build 49521"
  4677                           
  4678  0011D8                     	__end_of___lwmod:
  4679                           opt subtitle "HI-TECH Software Omniscient Code Generator (Lite mode) build 49521"
  4680                           
  4681                           opt pagewidth 120
  4682                           
  4683                           	opt lm
  4684                           
  4685                           	processor	18F4550
  4686                           porta	equ	0F80h
  4687                           portb	equ	0F81h
  4688                           portc	equ	0F82h
  4689                           portd	equ	0F83h
  4690                           porte	equ	0F84h
  4691                           lata	equ	0F89h
  4692                           latb	equ	0F8Ah
  4693                           latc	equ	0F8Bh
  4694                           latd	equ	0F8Ch
  4695                           late	equ	0F8Dh
  4696                           trisa	equ	0F92h
  4697                           trisb	equ	0F93h
  4698                           trisc	equ	0F94h
  4699                           trisd	equ	0F95h
  4700                           trise	equ	0F96h
  4701                           pie1	equ	0F9Dh
  4702                           pir1	equ	0F9Eh
  4703                           ipr1	equ	0F9Fh
  4704                           pie2	equ	0FA0h
  4705                           pir2	equ	0FA1h
  4706                           ipr2	equ	0FA2h
  4707                           t3con	equ	0FB1h
  4708                           tmr3l	equ	0FB2h
  4709                           tmr3h	equ	0FB3h
  4710                           ccp1con	equ	0FBDh
  4711                           ccpr1l	equ	0FBEh
  4712                           ccpr1h	equ	0FBFh
  4713  0012BA                     __ptext17:
  4714                           opt subtitle "HI-TECH Software Omniscient Code Generator (Lite mode) build 49521"
  4715                           
  4716                           opt pagewidth 120
  4717                           
  4718  0000                     	__size_of___wmul	equ	__end_of___wmul-___wmul
  4719                           opt subtitle "HI-TECH Software Omniscient Code Generator (Lite mode) build 49521"
  4720  0012BA                     ___wmul:
  4721                           opt subtitle "HI-TECH Software Omniscient Code Generator (Lite mode) build 49521"
  4722                           
  4723                           opt pagewidth 120
  4724  0012BA                     i2l1050:
  4725  0012BA  0E00               	movlw	high(0)
  4726  0012BC  6E06               	movwf	((c:___wmul@product+1)),c
  4727  0012BE  0E00               	movlw	low(0)
  4728  0012C0  6E05               	movwf	((c:___wmul@product)),c
  4729  0012C2  D000               	goto	i2l1052
  4730                           opt subtitle "HI-TECH Software Omniscient Code Generator (Lite mode) build 49521"
  4731                           
  4732  0012C4                     i2l680:
  4733                           opt subtitle "HI-TECH Software Omniscient Code Generator (Lite mode) build 49521"
  4734                           
  4735  0012C4                     i2l1052:
  4736                           opt subtitle "HI-TECH Software Omniscient Code Generator (Lite mode) build 49521"
  4737  0012C4  A001               	btfss	((c:___wmul@multiplier)),c,(0)&7
  4738  0012C6  D001               	goto	i2u17_41
  4739  0012C8  D001               	goto	i2u17_40
  4740  0012CA                     i2u17_41:
  4741  0012CA  D005               	goto	i2l1056
  4742  0012CC                     i2u17_40:
  4743                           opt subtitle "HI-TECH Software Omniscient Code Generator (Lite mode) build 49521"
  4744                           
  4745  0012CC                     i2l1054:
  4746  0012CC  5003               	movf	((c:___wmul@multiplicand)),c,w
  4747  0012CE  2605               	addwf	((c:___wmul@product)),c
  4748  0012D0  5004               	movf	((c:___wmul@multiplicand+1)),c,w
  4749  0012D2  2206               	addwfc	((c:___wmul@product+1)),c
  4750                           opt subtitle "HI-TECH Software Omniscient Code Generator (Lite mode) build 49521"
  4751  0012D4  D000               	goto	i2l1056
  4752                           opt subtitle "HI-TECH Software Omniscient Code Generator (Lite mode) build 49521"
  4753  0012D6                     i2l681:
  4754                           opt subtitle "HI-TECH Software Omniscient Code Generator (Lite mode) build 49521"
  4755                           
  4756  0012D6                     i2l1056:
  4757  0012D6  90D8               	bcf	status,0
  4758  0012D8  3603               	rlcf	((c:___wmul@multiplicand)),c
  4759  0012DA  3604               	rlcf	((c:___wmul@multiplicand+1)),c
  4760                           opt subtitle "HI-TECH Software Omniscient Code Generator (Lite mode) build 49521"
  4761                           
  4762  0012DC                     i2l1058:
  4763  0012DC  90D8               	bcf	status,0
  4764  0012DE  3202               	rrcf	((c:___wmul@multiplier+1)),c
  4765  0012E0  3201               	rrcf	((c:___wmul@multiplier)),c
  4766                           opt subtitle "HI-TECH Software Omniscient Code Generator (Lite mode) build 49521"
  4767  0012E2  5002               	movf	((c:___wmul@multiplier+1)),c,w
  4768  0012E4  1001               	iorwf ((c:___wmul@multiplier)),c,w
  4769                           opt subtitle "HI-TECH Software Omniscient Code Generator (Lite mode) build 49521"
  4770  0012E6  A4D8               	btfss	status,2
  4771  0012E8  D001               	goto	i2u18_41
  4772  0012EA  D001               	goto	i2u18_40
  4773  0012EC                     i2u18_41:
  4774  0012EC  D7EB               	goto	i2l1052
  4775  0012EE                     i2u18_40:
  4776                           opt subtitle "HI-TECH Software Omniscient Code Generator (Lite mode) build 49521"
  4777  0012EE                     i2l682:
  4778                           opt subtitle "HI-TECH Software Omniscient Code Generator (Lite mode) build 49521"
  4779  0012EE  C005  F001         	movff	(c:___wmul@product),(c:?___wmul)
  4780  0012F2  C006  F002         	movff	(c:___wmul@product+1),(c:?___wmul+1)
  4781                           opt subtitle "HI-TECH Software Omniscient Code Generator (Lite mode) build 49521"
  4782                           
  4783  0012F6                     i2l683:
  4784  0012F6  0012               	return
  4785                           opt subtitle "HI-TECH Software Omniscient Code Generator (Lite mode) build 49521"
  4786                           
  4787  0012F8                     	__end_of___wmul:
  4788                           opt subtitle "HI-TECH Software Omniscient Code Generator (Lite mode) build 49521"
  4789                           
  4790                           opt pagewidth 120
  4791                           
  4792                           	opt lm
  4793                           
  4794                           	processor	18F4550
  4795                           porta	equ	0F80h
  4796                           portb	equ	0F81h
  4797                           portc	equ	0F82h
  4798                           portd	equ	0F83h
  4799                           porte	equ	0F84h
  4800                           lata	equ	0F89h
  4801                           latb	equ	0F8Ah
  4802                           latc	equ	0F8Bh
  4803                           latd	equ	0F8Ch
  4804                           late	equ	0F8Dh
  4805                           trisa	equ	0F92h
  4806                           trisb	equ	0F93h
  4807                           trisc	equ	0F94h
  4808                           trisd	equ	0F95h
  4809                           trise	equ	0F96h
  4810                           pie1	equ	0F9Dh
  4811                           pir1	equ	0F9Eh
  4812                           ipr1	equ	0F9Fh
  4813                           pie2	equ	0FA0h
  4814                           pir2	equ	0FA1h
  4815                           ipr2	equ	0FA2h
  4816                           t3con	equ	0FB1h
  4817                           tmr3l	equ	0FB2h
  4818                           tmr3h	equ	0FB3h
  4819                           ccp1con	equ	0FBDh
  4820                           ccpr1l	equ	0FBEh
  4821                           ccpr1h	equ	0FBFh
  4822                           adcon1	equ	0FC1h
  4823                           adcon0	equ	0FC2h
  4824                           adresl	equ	0FC3h
  4825                           adresh	equ	0FC4h
  4826                           sspcon2	equ	0FC5h
  4827                           sspcon1	equ	0FC6h
  4828                           sspstat	equ	0FC7h
  4829                           sspadd	equ	0FC8h
  4830  001276                     __ptext18:
  4831                           opt subtitle "HI-TECH Software Omniscient Code Generator (Lite mode) build 49521"
  4832                           
  4833                           opt pagewidth 120
  4834                           
  4835  0000                     	__size_ofi2_string2screen	equ	__end_ofi2_string2screen-i2_string2screen
  4836                           opt subtitle "HI-TECH Software Omniscient Code Generator (Lite mode) build 49521"
  4837  001276                     i2_string2screen:
  4838                           opt subtitle "HI-TECH Software Omniscient Code Generator (Lite mode) build 49521"
  4839                           
  4840                           opt pagewidth 120
  4841  001276                     i2l1248:
  4842                           opt subtitle "HI-TECH Software Omniscient Code Generator (Lite mode) build 49521"
  4843  001276  6E09               	movwf	(??i2_string2screen+0+0)&0ffh,c
  4844  001278  0E00               	movlw	low(0)
  4845  00127A  6E0A               	movwf	((c:i2string2screen@location)),c
  4846  00127C  5009               	movf	(??i2_string2screen+0+0)&0ffh,c,w
  4847                           opt subtitle "HI-TECH Software Omniscient Code Generator (Lite mode) build 49521"
  4848                           
  4849  00127E                     i2l1250:
  4850                           opt subtitle "HI-TECH Software Omniscient Code Generator (Lite mode) build 49521"
  4851  00127E  0E02               	movlw	(02h)&0ffh
  4852  001280  6005               	cpfslt	((c:i2string2screen@row)),c
  4853  001282  D001               	goto	i2u39_41
  4854  001284  D001               	goto	i2u39_40
  4855  001286                     i2u39_41:
  4856  001286  D009               	goto	i2l1256
  4857  001288                     i2u39_40:
  4858                           opt subtitle "HI-TECH Software Omniscient Code Generator (Lite mode) build 49521"
  4859                           
  4860  001288                     i2l1252:
  4861                           opt subtitle "HI-TECH Software Omniscient Code Generator (Lite mode) build 49521"
  4862                           
  4863  001288  5006               	movf	((c:i2string2screen@pos)),c,w
  4864  00128A  0B0F               	andlw	low(0Fh)
  4865  00128C  0980               	iorlw	low(080h)
  4866  00128E  6E0A               	movwf	((c:i2string2screen@location)),c
  4867                           opt subtitle "HI-TECH Software Omniscient Code Generator (Lite mode) build 49521"
  4868                           
  4869  001290                     i2l1254:
  4870                           opt subtitle "HI-TECH Software Omniscient Code Generator (Lite mode) build 49521"
  4871  001290  C00A  F001         	movff	(c:i2string2screen@location),(c:?i2_write_command)
  4872  001294  ECBC  F009         	call	i2_write_command	;wreg free
  4873                           opt subtitle "HI-TECH Software Omniscient Code Generator (Lite mode) build 49521"
  4874                           
  4875  001298  D009               	goto	i2l1260
  4876                           opt subtitle "HI-TECH Software Omniscient Code Generator (Lite mode) build 49521"
  4877                           
  4878  00129A                     i2l115:
  4879                           opt subtitle "HI-TECH Software Omniscient Code Generator (Lite mode) build 49521"
  4880                           
  4881  00129A                     i2l1256:
  4882                           opt subtitle "HI-TECH Software Omniscient Code Generator (Lite mode) build 49521"
  4883                           
  4884                           opt pagewidth 120
  4885  00129A  5006               	movf	((c:i2string2screen@pos)),c,w
  4886  00129C  0B0F               	andlw	low(0Fh)
  4887  00129E  09C0               	iorlw	low(0C0h)
  4888  0012A0  6E0A               	movwf	((c:i2string2screen@location)),c
  4889                           opt subtitle "HI-TECH Software Omniscient Code Generator (Lite mode) build 49521"
  4890                           
  4891  0012A2                     i2l1258:
  4892                           opt subtitle "HI-TECH Software Omniscient Code Generator (Lite mode) build 49521"
  4893  0012A2  C00A  F001         	movff	(c:i2string2screen@location),(c:?i2_write_command)
  4894  0012A6  ECBC  F009         	call	i2_write_command	;wreg free
  4895  0012AA  D000               	goto	i2l1260
  4896                           opt subtitle "HI-TECH Software Omniscient Code Generator (Lite mode) build 49521"
  4897                           
  4898  0012AC                     i2l116:
  4899                           opt subtitle "HI-TECH Software Omniscient Code Generator (Lite mode) build 49521"
  4900                           
  4901  0012AC                     i2l1260:
  4902                           opt subtitle "HI-TECH Software Omniscient Code Generator (Lite mode) build 49521"
  4903                           
  4904  0012AC  C007  F003         	movff	(c:i2string2screen@string),(c:?i2_proc_string)
  4905  0012B0  C008  F004         	movff	(c:i2string2screen@string+1),(c:?i2_proc_string+1)
  4906  0012B4  ECEC  F008         	call	i2_proc_string	;wreg free
  4907                           opt subtitle "HI-TECH Software Omniscient Code Generator (Lite mode) build 49521"
  4908                           
  4909  0012B8                     i2l117:
  4910  0012B8  0012               	return
  4911                           opt subtitle "HI-TECH Software Omniscient Code Generator (Lite mode) build 49521"
  4912                           
  4913  0012BA                     	__end_ofi2_string2screen:
  4914                           opt subtitle "HI-TECH Software Omniscient Code Generator (Lite mode) build 49521"
  4915                           
  4916                           opt pagewidth 120
  4917                           
  4918                           	opt lm
  4919                           
  4920                           	processor	18F4550
  4921                           porta	equ	0F80h
  4922                           portb	equ	0F81h
  4923                           portc	equ	0F82h
  4924                           portd	equ	0F83h
  4925                           porte	equ	0F84h
  4926                           lata	equ	0F89h
  4927                           latb	equ	0F8Ah
  4928                           latc	equ	0F8Bh
  4929                           latd	equ	0F8Ch
  4930                           late	equ	0F8Dh
  4931                           trisa	equ	0F92h
  4932                           trisb	equ	0F93h
  4933                           trisc	equ	0F94h
  4934                           trisd	equ	0F95h
  4935                           trise	equ	0F96h
  4936                           pie1	equ	0F9Dh
  4937                           pir1	equ	0F9Eh
  4938                           ipr1	equ	0F9Fh
  4939                           pie2	equ	0FA0h
  4940                           pir2	equ	0FA1h
  4941                           ipr2	equ	0FA2h
  4942                           t3con	equ	0FB1h
  4943                           tmr3l	equ	0FB2h
  4944                           tmr3h	equ	0FB3h
  4945                           ccp1con	equ	0FBDh
  4946                           ccpr1l	equ	0FBEh
  4947                           ccpr1h	equ	0FBFh
  4948                           adcon1	equ	0FC1h
  4949                           adcon0	equ	0FC2h
  4950                           adresl	equ	0FC3h
  4951  0011D8                     __ptext19:
  4952                           opt subtitle "HI-TECH Software Omniscient Code Generator (Lite mode) build 49521"
  4953                           
  4954                           opt pagewidth 120
  4955                           
  4956  0000                     	__size_ofi2_proc_string	equ	__end_ofi2_proc_string-i2_proc_string
  4957                           opt subtitle "HI-TECH Software Omniscient Code Generator (Lite mode) build 49521"
  4958  0011D8                     i2_proc_string:
  4959                           opt subtitle "HI-TECH Software Omniscient Code Generator (Lite mode) build 49521"
  4960                           
  4961                           opt pagewidth 120
  4962  0011D8                     i2l1222:
  4963                           opt subtitle "HI-TECH Software Omniscient Code Generator (Lite mode) build 49521"
  4964  0011D8  D014               	goto	i2l1228
  4965                           opt subtitle "HI-TECH Software Omniscient Code Generator (Lite mode) build 49521"
  4966  0011DA                     i2l110:
  4967                           opt subtitle "HI-TECH Software Omniscient Code Generator (Lite mode) build 49521"
  4968                           
  4969  0011DA                     i2l1224:
  4970                           opt subtitle "HI-TECH Software Omniscient Code Generator (Lite mode) build 49521"
  4971                           
  4972  0011DA  5003               	movf	((c:i2proc_string@string)),c,w
  4973  0011DC  6EF6               	movwf	tblptrl
  4974  0011DE  6EE9               	movwf	fsr0l
  4975  0011E0  0E07               	movlw	high __ramtop-1
  4976  0011E2  6EEA               	movwf	fsr0h
  4977  0011E4  5004               	movf	((c:i2proc_string@string+1)),c,w
  4978  0011E6  64EA               	cpfsgt	fsr0h
  4979  0011E8  D003               	bra	i2u35_47
  4980  0011EA  6EEA               	movwf	fsr0h
  4981  0011EC  50EF               	movf	indf0,w
  4982  0011EE  D003               	bra	i2u35_40
  4983  0011F0                     i2u35_47:
  4984  0011F0  6EF7               	movwf	tblptrh
  4985  0011F2  0008               	tblrd	*
  4986                           opt subtitle "HI-TECH Software Omniscient Code Generator (Lite mode) build 49521"
  4987  0011F4  50F5               	movf	tablat,w
  4988  0011F6                     i2u35_40:
  4989  0011F6  6E01               	movwf	((c:?i2_write_char)),c
  4990  0011F8  ECA8  F009         	call	i2_write_char	;wreg free
  4991                           opt subtitle "HI-TECH Software Omniscient Code Generator (Lite mode) build 49521"
  4992                           
  4993  0011FC                     i2l1226:
  4994                           opt subtitle "HI-TECH Software Omniscient Code Generator (Lite mode) build 49521"
  4995  0011FC  4A03               	infsnz	((c:i2proc_string@string)),c
  4996  0011FE  2A04               	incf	((c:i2proc_string@string+1)),c
  4997  001200  D000               	goto	i2l1228
  4998                           opt subtitle "HI-TECH Software Omniscient Code Generator (Lite mode) build 49521"
  4999                           
  5000  001202                     i2l109:
  5001                           opt subtitle "HI-TECH Software Omniscient Code Generator (Lite mode) build 49521"
  5002                           
  5003  001202                     i2l1228:
  5004  001202  5003               	movf	((c:i2proc_string@string)),c,w
  5005  001204  6EF6               	movwf	tblptrl
  5006  001206  6EE9               	movwf	fsr0l
  5007  001208  0E07               	movlw	high __ramtop-1
  5008  00120A  6EEA               	movwf	fsr0h
  5009  00120C  5004               	movf	((c:i2proc_string@string+1)),c,w
  5010  00120E  64EA               	cpfsgt	fsr0h
  5011  001210  D003               	bra	i2u36_47
  5012  001212  6EEA               	movwf	fsr0h
  5013  001214  50EF               	movf	indf0,w
  5014  001216  D003               	bra	i2u36_40
  5015  001218                     i2u36_47:
  5016  001218  6EF7               	movwf	tblptrh
  5017  00121A  0008               	tblrd	*
  5018                           opt subtitle "HI-TECH Software Omniscient Code Generator (Lite mode) build 49521"
  5019  00121C  50F5               	movf	tablat,w
  5020  00121E                     i2u36_40:
  5021  00121E  0900               	iorlw	0
  5022  001220  A4D8               	btfss	status,2
  5023  001222  D001               	goto	i2u37_41
  5024  001224  D001               	goto	i2u37_40
  5025  001226                     i2u37_41:
  5026  001226  D7D9               	goto	i2l1224
  5027  001228                     i2u37_40:
  5028  001228  D000               	goto	i2l112
  5029                           opt subtitle "HI-TECH Software Omniscient Code Generator (Lite mode) build 49521"
  5030  00122A                     i2l111:
  5031                           opt subtitle "HI-TECH Software Omniscient Code Generator (Lite mode) build 49521"
  5032                           
  5033  00122A                     i2l112:
  5034  00122A  0012               	return
  5035                           opt subtitle "HI-TECH Software Omniscient Code Generator (Lite mode) build 49521"
  5036                           
  5037  00122C                     	__end_ofi2_proc_string:
  5038                           opt subtitle "HI-TECH Software Omniscient Code Generator (Lite mode) build 49521"
  5039                           
  5040                           opt pagewidth 120
  5041                           
  5042                           	opt lm
  5043                           
  5044                           	processor	18F4550
  5045                           porta	equ	0F80h
  5046                           portb	equ	0F81h
  5047                           portc	equ	0F82h
  5048                           portd	equ	0F83h
  5049                           porte	equ	0F84h
  5050                           lata	equ	0F89h
  5051                           latb	equ	0F8Ah
  5052                           latc	equ	0F8Bh
  5053                           latd	equ	0F8Ch
  5054                           late	equ	0F8Dh
  5055                           trisa	equ	0F92h
  5056                           trisb	equ	0F93h
  5057                           trisc	equ	0F94h
  5058                           trisd	equ	0F95h
  5059                           trise	equ	0F96h
  5060                           pie1	equ	0F9Dh
  5061                           pir1	equ	0F9Eh
  5062                           ipr1	equ	0F9Fh
  5063                           pie2	equ	0FA0h
  5064                           pir2	equ	0FA1h
  5065                           ipr2	equ	0FA2h
  5066                           t3con	equ	0FB1h
  5067                           tmr3l	equ	0FB2h
  5068                           tmr3h	equ	0FB3h
  5069                           ccp1con	equ	0FBDh
  5070                           ccpr1l	equ	0FBEh
  5071                           ccpr1h	equ	0FBFh
  5072  001350                     __ptext20:
  5073                           opt subtitle "HI-TECH Software Omniscient Code Generator (Lite mode) build 49521"
  5074                           
  5075                           opt pagewidth 120
  5076                           
  5077  0000                     	__size_ofi2_write_char	equ	__end_ofi2_write_char-i2_write_char
  5078                           opt subtitle "HI-TECH Software Omniscient Code Generator (Lite mode) build 49521"
  5079  001350                     i2_write_char:
  5080                           opt subtitle "HI-TECH Software Omniscient Code Generator (Lite mode) build 49521"
  5081                           
  5082                           opt pagewidth 120
  5083  001350                     i2l1166:
  5084                           opt subtitle "HI-TECH Software Omniscient Code Generator (Lite mode) build 49521"
  5085  001350  C001  FF8A         	movff	(c:i2write_char@data),(c:3978)	;volatile
  5086                           opt subtitle "HI-TECH Software Omniscient Code Generator (Lite mode) build 49521"
  5087                           
  5088  001354                     i2l1168:
  5089                           opt subtitle "HI-TECH Software Omniscient Code Generator (Lite mode) build 49521"
  5090  001354  C001  F002         	movff	(c:i2write_char@data),??i2_write_char+0+0
  5091  001358  0EC0               	movlw	0C0h
  5092  00135A  1602               	andwf	(??i2_write_char+0+0),c
  5093  00135C  5083               	movf	((c:3971)),c,w	;volatile
  5094  00135E  0B3F               	andlw	low(03Fh)
  5095  001360  1002               	iorwf	(??i2_write_char+0+0),c,w
  5096  001362  6E8C               	movwf	((c:3980)),c	;volatile
  5097                           opt subtitle "HI-TECH Software Omniscient Code Generator (Lite mode) build 49521"
  5098                           
  5099  001364                     i2l1170:
  5100                           opt subtitle "HI-TECH Software Omniscient Code Generator (Lite mode) build 49521"
  5101  001364  808C               	bsf	c:(31840/8),(31840)&7	;volatile
  5102                           opt subtitle "HI-TECH Software Omniscient Code Generator (Lite mode) build 49521"
  5103                           
  5104  001366                     i2l1172:
  5105                           opt subtitle "HI-TECH Software Omniscient Code Generator (Lite mode) build 49521"
  5106  001366  828C               	bsf	c:(31841/8),(31841)&7	;volatile
  5107                           opt subtitle "HI-TECH Software Omniscient Code Generator (Lite mode) build 49521"
  5108                           
  5109  001368  F000               nop ;# 
  5110                           opt subtitle "HI-TECH Software Omniscient Code Generator (Lite mode) build 49521"
  5111                           
  5112                           opt pagewidth 120
  5113  00136A                     i2l1174:
  5114                           opt subtitle "HI-TECH Software Omniscient Code Generator (Lite mode) build 49521"
  5115  00136A  928C               	bcf	c:(31841/8),(31841)&7	;volatile
  5116                           opt subtitle "HI-TECH Software Omniscient Code Generator (Lite mode) build 49521"
  5117                           
  5118  00136C                     i2l1176:
  5119                           opt subtitle "HI-TECH Software Omniscient Code Generator (Lite mode) build 49521"
  5120  00136C  0EFA               	movlw	250
  5121  00136E                     i2u70_47:
  5122  00136E  D000               	nop2
  5123  001370  F000               	nop
  5124  001372  2EE8               decfsz	wreg,f
  5125  001374  D7FC               	goto	i2u70_47
  5126                           opt subtitle "HI-TECH Software Omniscient Code Generator (Lite mode) build 49521"
  5127                           
  5128                           opt pagewidth 120
  5129  001376                     i2l106:
  5130  001376  0012               	return
  5131                           opt subtitle "HI-TECH Software Omniscient Code Generator (Lite mode) build 49521"
  5132                           
  5133  001378                     	__end_ofi2_write_char:
  5134                           opt subtitle "HI-TECH Software Omniscient Code Generator (Lite mode) build 49521"
  5135                           
  5136                           opt pagewidth 120
  5137                           
  5138                           	opt lm
  5139                           
  5140                           	processor	18F4550
  5141                           porta	equ	0F80h
  5142                           portb	equ	0F81h
  5143                           portc	equ	0F82h
  5144                           portd	equ	0F83h
  5145                           porte	equ	0F84h
  5146                           lata	equ	0F89h
  5147                           latb	equ	0F8Ah
  5148                           latc	equ	0F8Bh
  5149                           latd	equ	0F8Ch
  5150                           late	equ	0F8Dh
  5151                           trisa	equ	0F92h
  5152                           trisb	equ	0F93h
  5153                           trisc	equ	0F94h
  5154                           trisd	equ	0F95h
  5155                           trise	equ	0F96h
  5156                           pie1	equ	0F9Dh
  5157                           pir1	equ	0F9Eh
  5158                           ipr1	equ	0F9Fh
  5159                           pie2	equ	0FA0h
  5160                           pir2	equ	0FA1h
  5161                           ipr2	equ	0FA2h
  5162                           t3con	equ	0FB1h
  5163                           tmr3l	equ	0FB2h
  5164                           tmr3h	equ	0FB3h
  5165                           ccp1con	equ	0FBDh
  5166                           ccpr1l	equ	0FBEh
  5167                           ccpr1h	equ	0FBFh
  5168                           adcon1	equ	0FC1h
  5169  0013D2                     __ptext21:
  5170                           opt subtitle "HI-TECH Software Omniscient Code Generator (Lite mode) build 49521"
  5171                           
  5172                           opt pagewidth 120
  5173                           
  5174  0000                     	__size_ofi2_clear_screen	equ	__end_ofi2_clear_screen-i2_clear_screen
  5175                           opt subtitle "HI-TECH Software Omniscient Code Generator (Lite mode) build 49521"
  5176  0013D2                     i2_clear_screen:
  5177                           opt subtitle "HI-TECH Software Omniscient Code Generator (Lite mode) build 49521"
  5178                           
  5179                           opt pagewidth 120
  5180  0013D2                     i2l1232:
  5181                           opt subtitle "HI-TECH Software Omniscient Code Generator (Lite mode) build 49521"
  5182  0013D2  6E03               	movwf	(??i2_clear_screen+0+0)&0ffh,c
  5183  0013D4  0E01               	movlw	low(01h)
  5184  0013D6  6E01               	movwf	((c:?i2_write_command)),c
  5185  0013D8  5003               	movf	(??i2_clear_screen+0+0)&0ffh,c,w
  5186  0013DA  ECBC  F009         	call	i2_write_command	;wreg free
  5187                           opt subtitle "HI-TECH Software Omniscient Code Generator (Lite mode) build 49521"
  5188                           
  5189  0013DE                     i2l130:
  5190  0013DE  0012               	return
  5191                           opt subtitle "HI-TECH Software Omniscient Code Generator (Lite mode) build 49521"
  5192                           
  5193  0013E0                     	__end_ofi2_clear_screen:
  5194                           opt subtitle "HI-TECH Software Omniscient Code Generator (Lite mode) build 49521"
  5195                           
  5196                           opt pagewidth 120
  5197                           
  5198                           	opt lm
  5199                           
  5200                           	processor	18F4550
  5201                           porta	equ	0F80h
  5202                           portb	equ	0F81h
  5203                           portc	equ	0F82h
  5204                           portd	equ	0F83h
  5205                           porte	equ	0F84h
  5206                           lata	equ	0F89h
  5207                           latb	equ	0F8Ah
  5208                           latc	equ	0F8Bh
  5209                           latd	equ	0F8Ch
  5210                           late	equ	0F8Dh
  5211                           trisa	equ	0F92h
  5212                           trisb	equ	0F93h
  5213                           trisc	equ	0F94h
  5214                           trisd	equ	0F95h
  5215                           trise	equ	0F96h
  5216                           pie1	equ	0F9Dh
  5217                           pir1	equ	0F9Eh
  5218                           ipr1	equ	0F9Fh
  5219                           pie2	equ	0FA0h
  5220                           pir2	equ	0FA1h
  5221                           ipr2	equ	0FA2h
  5222                           t3con	equ	0FB1h
  5223                           tmr3l	equ	0FB2h
  5224                           tmr3h	equ	0FB3h
  5225                           ccp1con	equ	0FBDh
  5226                           ccpr1l	equ	0FBEh
  5227                           ccpr1h	equ	0FBFh
  5228                           adcon1	equ	0FC1h
  5229  001378                     __ptext22:
  5230                           opt subtitle "HI-TECH Software Omniscient Code Generator (Lite mode) build 49521"
  5231                           
  5232                           opt pagewidth 120
  5233                           
  5234  0000                     	__size_ofi2_write_command	equ	__end_ofi2_write_command-i2_write_command
  5235                           opt subtitle "HI-TECH Software Omniscient Code Generator (Lite mode) build 49521"
  5236  001378                     i2_write_command:
  5237                           opt subtitle "HI-TECH Software Omniscient Code Generator (Lite mode) build 49521"
  5238                           
  5239                           opt pagewidth 120
  5240  001378                     i2l1142:
  5241                           opt subtitle "HI-TECH Software Omniscient Code Generator (Lite mode) build 49521"
  5242  001378  C001  FF8A         	movff	(c:i2write_command@data),(c:3978)	;volatile
  5243                           opt subtitle "HI-TECH Software Omniscient Code Generator (Lite mode) build 49521"
  5244                           
  5245  00137C                     i2l1144:
  5246                           opt subtitle "HI-TECH Software Omniscient Code Generator (Lite mode) build 49521"
  5247  00137C  C001  F002         	movff	(c:i2write_command@data),??i2_write_command+0+0
  5248  001380  0EC0               	movlw	0C0h
  5249  001382  1602               	andwf	(??i2_write_command+0+0),c
  5250  001384  5083               	movf	((c:3971)),c,w	;volatile
  5251  001386  0B3F               	andlw	low(03Fh)
  5252  001388  1002               	iorwf	(??i2_write_command+0+0),c,w
  5253  00138A  6E8C               	movwf	((c:3980)),c	;volatile
  5254                           opt subtitle "HI-TECH Software Omniscient Code Generator (Lite mode) build 49521"
  5255                           
  5256  00138C                     i2l1146:
  5257                           opt subtitle "HI-TECH Software Omniscient Code Generator (Lite mode) build 49521"
  5258  00138C  908C               	bcf	c:(31840/8),(31840)&7	;volatile
  5259                           opt subtitle "HI-TECH Software Omniscient Code Generator (Lite mode) build 49521"
  5260                           
  5261  00138E                     i2l1148:
  5262                           opt subtitle "HI-TECH Software Omniscient Code Generator (Lite mode) build 49521"
  5263  00138E  828C               	bsf	c:(31841/8),(31841)&7	;volatile
  5264                           opt subtitle "HI-TECH Software Omniscient Code Generator (Lite mode) build 49521"
  5265                           
  5266  001390  F000               nop ;# 
  5267                           opt subtitle "HI-TECH Software Omniscient Code Generator (Lite mode) build 49521"
  5268                           
  5269                           opt pagewidth 120
  5270  001392                     i2l1150:
  5271                           opt subtitle "HI-TECH Software Omniscient Code Generator (Lite mode) build 49521"
  5272  001392  928C               	bcf	c:(31841/8),(31841)&7	;volatile
  5273                           opt subtitle "HI-TECH Software Omniscient Code Generator (Lite mode) build 49521"
  5274                           
  5275  001394                     i2l1152:
  5276                           opt subtitle "HI-TECH Software Omniscient Code Generator (Lite mode) build 49521"
  5277  001394  0EFA               	movlw	250
  5278  001396                     i2u71_47:
  5279  001396  D000               	nop2
  5280  001398  F000               	nop
  5281  00139A  2EE8               decfsz	wreg,f
  5282  00139C  D7FC               	goto	i2u71_47
  5283                           opt subtitle "HI-TECH Software Omniscient Code Generator (Lite mode) build 49521"
  5284                           
  5285                           opt pagewidth 120
  5286  00139E                     i2l103:
  5287  00139E  0012               	return
  5288                           opt subtitle "HI-TECH Software Omniscient Code Generator (Lite mode) build 49521"
  5289                           
  5290  0013A0                     	__end_ofi2_write_command:
  5291                           opt subtitle "HI-TECH Software Omniscient Code Generator (Lite mode) build 49521"
  5292                           
  5293  000855  00                 	db 0	; dummy byte at the end
  5294                           opt subtitle "HI-TECH Software Omniscient Code Generator (Lite mode) build 49521"
  5295                           
  5296                           opt pagewidth 120
  5297  0000                     __activetblptr	EQU	1
  5298                           opt subtitle "HI-TECH Software Omniscient Code Generator (Lite mode) build 49521"
  5299                           
  5300                           opt pagewidth 120
  5301                           
  5302                           	opt lm
  5303                           
  5304  0000                     __Lparam	EQU	__Lrparam
  5305  0000                     __Hparam	EQU	__Hrparam


Data Sizes:
    Strings     85
    Constant    0
    Data        0
    BSS         19
    Persistent  0
    Stack       0

Auto Spaces:
    Space          Size  Autos    Used
    COMRAM           95     60      79
    BANK0           160     12      12
    BANK1           256      0       0
    BANK2           256      0       0
    BANK3           256      0       0
    BANK4           256      0       0
    BANK5           256      0       0
    BANK6           256      0       0
    BANK7           256      0       0

Pointer List with Targets:

    ?___lwmod	unsigned int  size(2) Largest target is 0

    ?___lwdiv	unsigned int  size(2) Largest target is 0

    ?_utoa	PTR unsigned char  size(2) Largest target is 16
		 -> control_relay@buf(COMRAM[16]), update_lcd_timer@buf(COMRAM[16]), 

    ?___awdiv	int  size(2) Largest target is 0

    ?___wmul	unsigned int  size(2) Largest target is 0

    ?_itoa	PTR unsigned char  size(2) Largest target is 16
		 -> control_relay@buf(COMRAM[16]), update_lcd_timer@buf(COMRAM[16]), 

    utoa@buf	PTR unsigned char  size(2) Largest target is 16
		 -> control_relay@buf(COMRAM[16]), update_lcd_timer@buf(COMRAM[16]), 

    sp__utoa	PTR unsigned char  size(2) Largest target is 16
		 -> control_relay@buf(COMRAM[16]), update_lcd_timer@buf(COMRAM[16]), 

    itoa@buf	PTR unsigned char  size(2) Largest target is 16
		 -> control_relay@buf(COMRAM[16]), update_lcd_timer@buf(COMRAM[16]), 

    itoa@cp	PTR unsigned char  size(2) Largest target is 16
		 -> control_relay@buf(COMRAM[16]), update_lcd_timer@buf(COMRAM[16]), 

    sp__itoa	PTR unsigned char  size(2) Largest target is 16
		 -> control_relay@buf(COMRAM[16]), update_lcd_timer@buf(COMRAM[16]), 

    string2screen@string	PTR const unsigned char  size(2) Largest target is 16
		 -> STR_9(CODE[16]), STR_8(CODE[14]), STR_7(CODE[7]), STR_6(CODE[12]), 
		 -> STR_5(CODE[8]), STR_4(CODE[11]), control_relay@buf(COMRAM[16]), STR_3(CODE[7]), 
		 -> STR_2(CODE[10]), update_lcd_timer@buf(COMRAM[16]), STR_1(CODE[7]), 

    proc_string@string	PTR const unsigned char  size(2) Largest target is 16
		 -> STR_9(CODE[16]), STR_8(CODE[14]), STR_7(CODE[7]), STR_6(CODE[12]), 
		 -> STR_5(CODE[8]), STR_4(CODE[11]), control_relay@buf(COMRAM[16]), STR_3(CODE[7]), 
		 -> STR_2(CODE[10]), update_lcd_timer@buf(COMRAM[16]), STR_1(CODE[7]), 


Critical Paths under _main in COMRAM

    None.

Critical Paths under _isr in COMRAM

    _isr->_control_relay
    _update_lcd_timer->_itoa
    _clear_line->i2_write_command
    _clear_line->i2_write_char
    _control_relay->_itoa
    _itoa->_utoa
    ___awdiv->___wmul
    _utoa->___lwdiv
    i2_string2screen->i2_proc_string
    i2_proc_string->i2_write_char
    i2_clear_screen->i2_write_command

Critical Paths under _main in BANK0

    _main->_string2screen
    _string2screen->_proc_string
    _proc_string->_write_char
    _clear_screen->_write_command
    _initialize->_write_command

Critical Paths under _isr in BANK0

    None.

Critical Paths under _main in BANK1

    None.

Critical Paths under _isr in BANK1

    None.

Critical Paths under _main in BANK2

    None.

Critical Paths under _isr in BANK2

    None.

Critical Paths under _main in BANK3

    None.

Critical Paths under _isr in BANK3

    None.

Critical Paths under _main in BANK4

    None.

Critical Paths under _isr in BANK4

    None.

Critical Paths under _main in BANK5

    None.

Critical Paths under _isr in BANK5

    None.

Critical Paths under _main in BANK6

    None.

Critical Paths under _isr in BANK6

    None.

Critical Paths under _main in BANK7

    None.

Critical Paths under _isr in BANK7

    None.

Call Graph Tables:

 ---------------------------------------------------------------------------------
 (Depth) Function   	        Calls       Base Space   Used Autos Params    Refs
 ---------------------------------------------------------------------------------
 (0) _main                                                 2     2      0     356
                                             10 BANK0      2     2      0
                         _initialize
                       _clear_screen
                      _string2screen
 ---------------------------------------------------------------------------------
 (1) _string2screen                                        6     2      4     268
                                              4 BANK0      6     2      4
                      _write_command
                        _proc_string
 ---------------------------------------------------------------------------------
 (2) _proc_string                                          2     0      2      89
                                              2 BANK0      2     0      2
                         _write_char
 ---------------------------------------------------------------------------------
 (3) _write_char                                           2     1      1      44
                                              0 BANK0      2     1      1
 ---------------------------------------------------------------------------------
 (1) _clear_screen                                         1     1      0      44
                                              2 BANK0      1     1      0
                      _write_command
 ---------------------------------------------------------------------------------
 (1) _initialize                                           1     1      0      44
                                              2 BANK0      1     1      0
                      _write_command
 ---------------------------------------------------------------------------------
 (2) _write_command                                        2     1      1      44
                                              0 BANK0      2     1      1
 ---------------------------------------------------------------------------------
 Estimated maximum stack depth 3
 ---------------------------------------------------------------------------------
 (Depth) Function   	        Calls       Base Space   Used Autos Params    Refs
 ---------------------------------------------------------------------------------
 (4) _isr                                                 34    34      0    4205
                                             44 COMRAM    16    16      0
                            _led_bar
                      _control_relay
                   _update_lcd_timer
                     i2_clear_screen
                    i2_string2screen
 ---------------------------------------------------------------------------------
 (5) _led_bar                                              2     0      2      90
                                              0 COMRAM     2     0      2
 ---------------------------------------------------------------------------------
 (5) _update_lcd_timer                                    18    18      0    1615
                                             25 COMRAM    18    18      0
                         _clear_line
                    i2_string2screen
                               _itoa
 ---------------------------------------------------------------------------------
 (6) _clear_line                                           6     4      2     345
                                              2 COMRAM     6     4      2
                    i2_write_command
                       i2_write_char
 ---------------------------------------------------------------------------------
 (5) _control_relay                                       19    18      1    1660
                                             25 COMRAM    19    18      1
                     i2_clear_screen
                    i2_string2screen
                             ___wmul
                            ___awdiv
                               _itoa
 ---------------------------------------------------------------------------------
 (6) _itoa                                                 8     2      6     520
                                             17 COMRAM     8     2      6
                               _utoa
                            ___awdiv (ARG)
                             ___wmul (ARG)
 ---------------------------------------------------------------------------------
 (6) ___awdiv                                              9     5      4     195
                                              6 COMRAM     9     5      4
                             ___wmul (ARG)
 ---------------------------------------------------------------------------------
 (7) _utoa                                                 9     3      6     410
                                              8 COMRAM     9     3      6
                            ___lwdiv
                            ___lwmod
 ---------------------------------------------------------------------------------
 (8) ___lwdiv                                              8     4      4     105
                                              0 COMRAM     8     4      4
 ---------------------------------------------------------------------------------
 (8) ___lwmod                                              6     2      4     105
                                              0 COMRAM     6     2      4
 ---------------------------------------------------------------------------------
 (6) ___wmul                                               6     2      4      60
                                              0 COMRAM     6     2      4
 ---------------------------------------------------------------------------------
 (5) i2_string2screen                                      6     2      4     720
                                              4 COMRAM     6     2      4
                    i2_write_command
                      i2_proc_string
 ---------------------------------------------------------------------------------
 (6) i2_proc_string                                        2     0      2     240
                                              2 COMRAM     2     0      2
                       i2_write_char
 ---------------------------------------------------------------------------------
 (7) i2_write_char                                         2     1      1     120
                                              0 COMRAM     2     1      1
 ---------------------------------------------------------------------------------
 (5) i2_clear_screen                                       1     1      0     120
                                              2 COMRAM     1     1      0
                    i2_write_command
 ---------------------------------------------------------------------------------
 (6) i2_write_command                                      2     1      1     120
                                              0 COMRAM     2     1      1
 ---------------------------------------------------------------------------------
 Estimated maximum stack depth 8
 ---------------------------------------------------------------------------------

 Call Graph Graphs:

 _main (ROOT)
   _initialize
     _write_command
   _clear_screen
     _write_command
   _string2screen
     _write_command
     _proc_string
       _write_char

 _isr (ROOT)
   _led_bar
   _control_relay
     i2_clear_screen
       i2_write_command
     i2_string2screen
       i2_write_command
       i2_proc_string
         i2_write_char
     ___wmul
     ___awdiv
       ___wmul (ARG)
     _itoa
       _utoa
         ___lwdiv
         ___lwmod
       ___awdiv (ARG)
         ___wmul (ARG)
       ___wmul (ARG)
   _update_lcd_timer
     _clear_line
       i2_write_command
       i2_write_char
     i2_string2screen
       i2_write_command
       i2_proc_string
         i2_write_char
     _itoa
       _utoa
         ___lwdiv
         ___lwmod
       ___awdiv (ARG)
         ___wmul (ARG)
       ___wmul (ARG)
   i2_clear_screen
     i2_write_command
   i2_string2screen
     i2_write_command
     i2_proc_string
       i2_write_char

 Address spaces:
Name               Size   Autos  Total    Cost      Usage
BIGRAM             7FF      0       0      21        0.0%
EEDATA             100      0       0       0        0.0%
BITBANK7           100      0       0      18        0.0%
BANK7              100      0       0      19        0.0%
BITBANK6           100      0       0      16        0.0%
BANK6              100      0       0      17        0.0%
BITBANK5           100      0       0      14        0.0%
BANK5              100      0       0      15        0.0%
BITBANK4           100      0       0      12        0.0%
BANK4              100      0       0      13        0.0%
BITBANK3           100      0       0      10        0.0%
BANK3              100      0       0      11        0.0%
BITBANK2           100      0       0       8        0.0%
BANK2              100      0       0       9        0.0%
BITBANK1           100      0       0       6        0.0%
BANK1              100      0       0       7        0.0%
BITBANK0            A0      0       0       4        0.0%
BANK0               A0      C       C       5        7.5%
BITCOMRAM           5F      0       0       0        0.0%
COMRAM              5F     3C      4F       1       83.2%
BITSFR               0      0       0      40        0.0%
SFR                  0      0       0      40        0.0%
STACK                0      0       D       2        0.0%
NULL                 0      0       0       0        0.0%
ABS                  0      0      5B      20        0.0%
DATA                 0      0      68       3        0.0%
CODE                 0      0       0       0        0.0%


Microchip Technology PIC18 Macro Assembler V1.12 build 49521 
Symbol Table                                                                                   Mon Nov 20 15:56:22 2017

   __size_of_control_relay 0100               ___awdiv@sign 000D        ___wmul@multiplicand 0003  
              __CFG_BORV$3 000000               __CFG_CP0$OFF 000000               __CFG_CP1$OFF 000000  
             __CFG_CP2$OFF 000000               __CFG_CP3$OFF 000000                        l110 0FD4  
                      l103 134E                        l111 103E                        l112 103E  
                      l130 13D0                        l106 1322                        l115 1150  
                      l116 116C                        l133 0C88                        l109 100E  
                      l117 117A                        l166 0F4E                        l167 0F4E  
                      l168 0F50                        l169 0F50               __CFG_CPB$OFF 000000  
             __CFG_CPD$OFF 000000                        u620 0FF8                        u630 1032  
                      u640 103C                        u641 103A                        u650 1134  
                      u627 0FF2                        u651 1132                        u637 102C  
                      u667 131A                        u677 0BE6                        u687 0BF8  
                      u697 1346               __CFG_BOR$OFF 000000                        _isr 0008  
                      wreg 000FE8         clear_line@location 0008               __CFG_LVP$OFF 000000  
             __CFG_WDT$OFF 000000                       l1400 1318                       l1402 0FD2  
                     l1410 1116                       l1404 0FD4                       l1420 1160  
                     l1412 1126                       l1500 0EDA                       l1430 0BDC  
                     l1406 1004                       l1422 116C                       l1414 1134  
                     l1502 0EE6                       l1440 0C2E                       l1432 0BDE  
                     l1424 13BA                       l1408 100E                       l1416 1144  
                     l1504 0F1A                       l1450 0C52                       l1442 0C44  
                     l1434 0BF0                       l1426 0BAE                       l1418 1150  
                     l1380 1328                       l1460 0C5C                       l1452 0C54  
                     l1444 0C48                       l1436 0C02                       l1428 0BDA  
                     l1382 133C                       l1470 0C68                       l1462 0C5E  
                     l1454 0C56                       l1446 0C4C                       l1438 0C18  
                     l1390 12F8                       l1384 133E                       l1480 0C74  
                     l1472 0C6C                       l1464 0C60                       l1456 0C58  
                     l1448 0C50                       l1392 12FC                       l1386 1342  
                     l1378 1324                       l1490 0C82                       l1482 0C76  
                     l1474 0C6E                       l1466 0C62                       l1458 0C5A  
                     l1394 1310                       l1388 1344                       l1492 0C84  
                     l1484 0C7A                       l1476 0C70                       l1468 0C64  
                     l1396 1312                       l1494 0C86                       l1486 0C7E  
                     l1478 0C72                       l1398 1316                       l1488 0C80  
                     l1496 0ECE                       l1498 0ED2                       ?_isr 0001  
                     STR_1 0847                       STR_2 0835                       STR_3 0847  
                     STR_4 082A                       STR_5 083F                       STR_6 081E  
                     STR_7 084E                       STR_8 0810                       STR_9 0800  
                     _LATA 000F89                       _LATB 000F8A                       _LATC 000F8B  
                     _LATD 000F8C                       _LATE 000F8D                       i2l90 0CC8  
                     i2l91 0CCC                       i2l92 0CEC                       i2l93 0CF0  
                     i2l94 0D10                       i2l95 0D14                       i2l96 0D34  
                     i2l97 0D38                       i2l89 0CA8                       i2l98 0D58  
                     i2l99 0D5C                       _main 0ECE                       _itoa 122C  
                     fsr0h 000FEA                       fsr1h 000FE2                       indf0 000FEF  
                     fsr0l 000FE9                       fsr2h 000FDA                       fsr1l 000FE1  
                     indf2 000FDF                       fsr2l 000FD9                       _utoa 0E1A  
                     pclat 000FFA                       prodh 000FF4                       prodl 000FF3  
                     start 0018           ?i2_write_command 0001              __CFG_IESO$OFF 000000  
             led_bar@value 0001           _update_lcd_timer 10AC             write_char@data 0060  
            __CFG_MCLRE$ON 000000                      ??_isr 002D              __CFG_PLLDIV$1 000000  
      i2proc_string@string 0003                      ?_main 0001                      ?_itoa 0012  
          __end_of___awdiv 0E1A                      ?_utoa 0009            ___awdiv@divisor 0009  
                    _LATD0 007C60                      _LATD1 007C61            __end_of___lwdiv 10AC  
                    i2l100 0D5C                      i2l110 11DA                      i2l103 139E  
                    i2l111 122A                      i2l112 122A                      i2l120 0F78  
          __end_of___lwmod 11D8                      i2l121 0F8A                      i2l130 13DE  
                    i2l106 1376                      i2l122 0FAA                      i2l115 129A  
                    i2l123 0FD0                      i2l116 12AC                      i2l124 0FD0  
                    i2l109 1202                      i2l117 12B8                      i2l150 0942  
                    i2l127 1114                      i2l151 095C                      i2l143 08FC  
                    i2l136 0B62                      i2l160 0A34                      i2l152 095A  
                    i2l144 08EC                      i2l137 0BAC                      i2l161 0A52  
                    i2l153 09A6                      i2l145 08DA                      i2l138 0BAC  
                    i2l162 0A74                      i2l154 09C2                      i2l146 08EA  
                    i2l163 0A74                      i2l155 09C0                      i2l147 08FA  
                    i2l148 0A62                      i2l156 0A40                      i2l157 0A3E  
                    i2l149 0932                      i2l158 0A34                      i2l159 0A2A  
                    i2l290 0D96                      i2l291 0DFA                      i2l292 0DBE  
                    i2l541 0E24                      i2l293 0DB4                      i2l542 0E52  
                    i2l294 0DC8                      i2l543 0E66                      i2l295 0DCA  
                    i2l544 0EA8                      i2l296 0DEC                      i2l545 0ECC  
                    i2l297 0DF8                      i2l289 0D80                      i2l537 1256  
                    i2l650 10A2                      i2l546 0ECC                      i2l298 0E0E  
                    i2l538 1274                      i2l651 10AA                      i2l299 0E18  
                    i2l660 11CE                      i2l644 10A2                      i2l661 11D6  
                    i2l645 1068                      i2l654 11CE                      i2l646 105E  
                    i2l655 119C                      i2l647 1072                      i2l680 12C4  
                    i2l656 1192                      i2l648 1074                      i2l681 12D6  
                    i2l657 11A6                      i2l649 1096                      i2l682 12EE  
                    i2l658 11A8                      i2l850 0C8A                      i2l683 12F6  
                    i2l659 11C2                      i2l860 0CCC                      i2l852 0C9E  
                    i2l870 0D0C                      i2l862 0CE0                      i2l854 0CA8  
                    i2l880 0D4C                      i2l872 0D14                      i2l864 0CE8  
                    i2l856 0CBC                      i2l882 0D54                      i2l874 0D28  
                    i2l866 0CF0                      i2l858 0CC4                      i2l876 0D30  
                    i2l868 0D04            ___awdiv@counter 000C                      i2l878 0D38  
                    _TMR0H 000FD7                      _TMR1H 000FCF                      _TMR0L 000FD6  
                    _TMR1L 000FCE                      _PORTD 000F83              __CFG_USBDIV$1 000000  
                    _TRISA 000F92                      _TRISB 000F93                      _TRISC 000F94  
                    _TRISD 000F95                      _TRISE 000F96              __CFG_PWRT$OFF 000000  
            __CFG_WRT0$OFF 000000              __CFG_WRT1$OFF 000000              __CFG_WRT2$OFF 000000  
            __CFG_WRT3$OFF 000000             __CFG_EBTR0$OFF 000000             __CFG_FCMEN$OFF 000000  
           __CFG_EBTR1$OFF 000000             __CFG_EBTR2$OFF 000000       __end_of_clear_screen 13D2  
           __CFG_EBTR3$OFF 000000            __end_of_led_bar 0D5E              __CFG_WRTB$OFF 000000  
            __CFG_WRTC$OFF 000000              __CFG_WRTD$OFF 000000             __CFG_EBTRB$OFF 000000  
            _control_relay 0AAE      __end_ofi2_proc_string 122C                      tablat 000FF5  
     __end_ofi2_write_char 1378                      utoa@c 0011                      utoa@v 000F  
                    status 000FD8             __CFG_ICPRT$OFF 000000            __initialization 13A0  
             __end_of_main 0F54               __end_of_itoa 1276               __end_of_utoa 0ECE  
         string2screen@pos 0065           string2screen@row 0064     __size_of_string2screen 0066  
                   ??_main 006A                     ??_itoa 0018                     ??_utoa 000F  
            __activetblptr 000001        string2screen@string 0066            __CFG_CCP2MX$OFF 000000  
                   _ADCON0 000FC2                     _ADCON1 000FC1                     _ADCON2 000FC0  
           ?_control_relay 001A                     _ADRESH 000FC4           ___awdiv@dividend 0007  
                   i2l1020 1068                     i2l1012 1040                     i2l1100 0E0E  
                   i2l1030 1096                     i2l1022 1074                     i2l1014 1048  
                   i2l1110 0E44                     i2l1102 0E18                     i2l1040 119C  
                   i2l1032 109C                     i2l1024 107A                     i2l1016 1054  
                   i2l1120 0E9A                     i2l1112 0E52                     i2l1104 0E1A  
                   i2l1200 0FBA                     i2l1050 12BA                     i2l1042 11A8  
                   i2l1034 117C                     i2l1026 108A                     i2l1018 105E  
                   i2l1122 0EA4                     i2l1114 0E5E                     i2l1106 0E24  
                   i2l1210 1256                     i2l1202 122C                     i2l1052 12C4  
                   i2l1044 11B8                     i2l1036 1188                     i2l1028 1092  
                   i2l1124 0EAC                     i2l1116 0E66                     i2l1108 0E40  
                   i2l1060 0D5E                     i2l1212 1274                     i2l1204 123C  
                   i2l1300 088C                     i2l1150 1392                     i2l1142 1378  
                   i2l1222 11D8                     i2l1054 12CC                     i2l1046 11C2  
                   i2l1038 1192                     i2l1126 0EB8                     i2l1118 0E7E  
                   i2l1070 0D88                     i2l1062 0D66                     i2l1206 1248  
                   i2l1310 08CC                     i2l1302 0894                     i2l1152 1394  
                   i2l1144 137C                     i2l1232 13D2                     i2l1224 11DA  
                   i2l1056 12D6                     i2l1048 11C8                     i2l1128 0EBE  
                   i2l1080 0DB4                     i2l1072 0D90                     i2l1064 0D6E  
                   i2l1208 124C                     i2l1320 0904                     i2l1312 08DA  
                   i2l1304 08A0                     i2l1146 138C                     i2l1170 1364  
                   i2l1226 11FC                     i2l1250 127E                     i2l1058 12DC  
                   i2l1090 0DE8                     i2l1082 0DBE                     i2l1074 0D96  
                   i2l1066 0D76                     i2l1330 093A                     i2l1322 090C  
                   i2l1314 08E2                     i2l1306 08AC                     i2l1148 138E  
                   i2l1172 1366                     i2l1228 1202                     i2l1260 12AC  
                   i2l1252 1288                     i2l1092 0DEC                     i2l1084 0DCA  
                   i2l1076 0D9E                     i2l1068 0D80                     i2l1180 0F5C  
                   i2l1340 096C                     i2l1332 094A                     i2l1324 0918  
                   i2l1308 08C0                     i2l1316 08EC                     i2l1174 136A  
                   i2l1166 1350                     i2l1254 1290                     i2l1094 0DF2  
                   i2l1086 0DD0                     i2l1078 0DAA                     i2l1270 0AAE  
                   i2l1190 0F8A                     i2l1182 0F66                     i2l1262 10AC  
                   i2l1350 09CA                     i2l1342 0988                     i2l1334 0952  
                   i2l1326 092C                     i2l1318 08F8                     i2l1176 136C  
                   i2l1168 1354                     i2l1256 129A                     i2l1248 1276  
                   i2l1088 0DE0                     i2l1096 0DFA                     i2l1280 0AC8  
                   i2l1272 0AB8                     i2l1192 0F92                     i2l1184 0F6E  
                   i2l1264 10C0                     i2l1360 0A00                     i2l1352 09D6  
                   i2l1344 09A6                     i2l1336 095C                     i2l1328 0932  
                   i2l1258 12A2                     i2l1098 0E04                     i2l1290 0B6C  
                   i2l1282 0AE4                     i2l1274 0ABA                     i2l1194 0FA8  
                   i2l1186 0F78                     i2l1178 0F54                     i2l1266 10DC  
                   i2l1362 0A14                     i2l1370 0A52                     i2l1354 09DA  
                   i2l1346 09B2                     i2l1338 0968                     i2l1292 0B6E  
                   i2l1284 0B00                     i2l1276 0AC2                     i2l1196 0FAA  
                   i2l1188 0F80                     i2l1268 10F8                     i2l1372 0A5E  
                   i2l1364 0A20                     i2l1356 09E8                     i2l1348 09C2  
                   i2l1294 0B72                     i2l1286 0B44                     i2l1278 0AC4  
                   i2l1198 0FB6                     i2l1366 0A2A                     i2l1358 09F8  
                   i2l1374 0A62                     i2l1296 0B8E                     i2l1288 0B64  
                   i2l1376 0A6A                     i2l1368 0A40                     i2l1298 0884  
                   _OSCCON 000FD3                     i2u1_40 0C9E                     i2u1_41 0C9C  
                   i2u2_40 0CBC                     i2u2_41 0CBA                     i2u3_40 0CE0  
                   i2u3_41 0CDE                     i2u4_40 0D04                     i2u4_41 0D02  
                   i2u5_40 0D28                     i2u5_41 0D26                     i2u6_40 0D4C  
                   i2u6_41 0D4A             __CFG_XINST$OFF 000000                     ___wmul 12BA  
                ??___awdiv 000B                  ??___lwdiv 0005                  ??___lwmod 0005  
                   clear_0 13A6           ___awdiv@quotient 000E                  ??_led_bar 0003  
                   itoa@cp 0018               __mediumconst 0000                     tblptrh 000FF7  
                   tblptrl 000FF6                     tblptru 000FF8               ?_proc_string 0062  
            _string2screen 1116                 __accesstop 0060    __end_of__initialization 13AC  
          __CFG_PBADEN$OFF 000000             __pcstackCOMRAM 0001   __size_ofi2_string2screen 0044  
    __size_of_clear_screen 0018        update_lcd_timer@buf 001C     __size_of_write_command 002C  
 __end_of_update_lcd_timer 1116            ??_control_relay 001B      __size_ofi2_write_char 0028  
           ?_string2screen 0064                 _clear_line 0F54               _clear_screen 13BA  
                  ?___wmul 0001    __size_ofi2_clear_screen 000E               i2_write_char 1350  
                  i2u11_40 1054                    i2u11_41 1052                    i2u12_40 1070  
                  i2u20_40 0D88                    i2u12_41 106E                    i2u20_41 0D86  
                  i2u13_40 108A                    i2u21_40 0DAA                    i2u13_41 1088  
                  i2u21_41 0DA8                    i2u14_40 1188                    i2u22_40 0DC6  
                  i2u30_40 0FCE                    i2u14_41 1186                    i2u22_41 0DC4  
                  i2u30_41 0FCC                    i2u15_40 11A4                    i2u23_40 0DE0  
                  i2u31_40 123C                    i2u15_41 11A2                    i2u23_41 0DDE  
                  i2u31_41 123A                    i2u16_40 11B8                    i2u24_40 0E04  
                  i2u40_40 0AB8                    i2u16_41 11B6                    i2u24_41 0E02  
                  i2u40_41 0AB6                    i2u17_40 12CC                    i2u25_40 0E50  
                  i2u41_40 088C                    i2u17_41 12CA                    i2u25_41 0E4E  
                  i2u41_41 088A                    i2u18_40 12EE                    i2u26_40 0EA4  
                  i2u50_40 093A                    i2u42_40 08AC                    i2u18_41 12EC  
                  i2u26_41 0EA2                    i2u50_41 0938                    i2u42_41 08AA  
                  i2u35_40 11F6                    i2u27_40 0ECA                    i2u19_40 0D6E  
                  i2u51_40 094A                    i2u43_40 08C0                    i2u27_41 0EC8  
                  i2u19_41 0D6C                    i2u51_41 0948                    i2u43_41 08BE  
                  i2u35_47 11F0                    i2u36_40 121E                    i2u28_40 0F66  
                  i2u60_40 0A20                    i2u52_40 0952                    i2u44_40 08CC  
                  i2u28_41 0F64                    i2u60_41 0A1E                    i2u52_41 0950  
                  i2u44_41 08CA                    i2u36_47 1218                    i2u37_40 1228  
                  i2u29_40 0FA6                    i2u61_40 0A6A                    i2u53_40 0968  
                  i2u45_40 08E2                    i2u37_41 1226                    i2u29_41 0FA4  
                  i2u61_41 0A68                    i2u53_41 0966                    i2u45_41 08E0  
                  i2u54_40 09B2                    i2u46_40 08F8                    i2u54_41 09B0  
                  i2u46_41 08F6                    i2u70_47 136E                    i2u39_40 1288  
                  i2u55_40 09CA                    i2u47_40 0904                    i2u39_41 1286  
                  i2u55_41 09C8                    i2u47_41 0902                    i2u71_47 1396  
                  i2u56_40 09D6                    i2u48_40 0918                    i2u56_41 09D4  
                  i2u48_41 0916                    i2u57_40 09E8                    i2u49_40 092C  
                  i2u57_41 09E6                    i2u49_41 092A                    i2u58_40 09F4  
                  i2u58_41 09F0                    i2u58_46 09F6                    i2u59_40 0A14  
                  i2u59_41 0A12            __CFG_VREGEN$OFF 000000          proc_string@string 0062  
            _write_command 1324                    __Hparam 0000                    __Lparam 0000  
                  ___awdiv 0D5E            __size_of___wmul 003E                    ___lwdiv 1040  
                  ___lwmod 117C               __psmallconst 0800            __CFG_STVREN$OFF 000000  
 __size_ofi2_write_command 0028                    __pcinit 13A0                    __ramtop 0800  
               _initialize 0BAE                    __ptext0 0ECE                    __ptext1 1116  
                  __ptext2 0FD2                    __ptext3 12F8                    __ptext4 13BA  
                  __ptext5 0BAE                    __ptext6 1324                    __ptext8 0C8A  
                  __ptext9 10AC                    _led_bar 0C8A                  _T0CONbits 000FD5  
                _T1CONbits 000FCD          ??i2_string2screen 0009               __size_of_isr 0AA6  
                _BURN_TIME 003D            ??_string2screen 0068             __pintcode_body 0856  
     end_of_initialization 13AC                    itoa@buf 0012                    itoa@val 0014  
     __size_of_proc_string 006E             ?_write_command 0060                    int_func 0856  
                _ISRUNNING 0047                ?_clear_line 0003                    postinc0 000FEE  
                  utoa@buf 0009                    utoa@val 000B        i2write_command@data 0001  
   __size_ofi2_proc_string 0054                  _PORTAbits 000F80         i2string2screen@pos 0006  
       i2string2screen@row 0005             i2_clear_screen 13D2             __end_of___wmul 12F8  
               _write_char 12F8                ?_initialize 0001        start_initialization 13A0  
        ??i2_write_command 0002          ?_update_lcd_timer 0001                __end_of_isr 0AAE  
      __size_of_clear_line 007E         ??_update_lcd_timer 001A            ??_write_command 0061  
            i2_proc_string 11D8              clear_line@pos 0004              clear_line@row 0003  
   __end_ofi2_clear_screen 13E0                   ??___wmul 0005                 isr@running 004F  
         __CFG_LPT1OSC$OFF 000000      string2screen@location 0069         control_relay@value 001A  
              __pbssCOMRAM 003D              __pcstackBANK0 0060        __end_of__stringdata 0855  
    __end_of_control_relay 0BAE             ?i2_proc_string 0003        __size_of_initialize 00DC  
         ___lwdiv@dividend 0001            i2_string2screen 1276                  __pintcode 0008  
          ?i2_clear_screen 0001                   ?___awdiv 0007                   ?___lwdiv 0001  
                 ?___lwmod 0001                ?_write_char 0060                   ?_led_bar 0001  
              _DISP_TIMER1 0043                _DISP_TIMER2 0045                __smallconst 0800  
         ___lwdiv@quotient 0006             ___wmul@product 0005                   _LATCbits 000F8B  
                 _LATDbits 000F8C                   _LATEbits 000F8D                   _PIE1bits 000F9D  
                 _OLDPRESS 0049               ??_clear_line 0005                   _PIR1bits 000F9E  
         __CFG_WDTPS$32768 000000                   _PRSCOUNT 004D                 _ADCON0bits 000FC2  
              __stringdata 0800          ___wmul@multiplier 0001            ??i2_proc_string 0005  
       __end_of_clear_line 0FD2              ??_proc_string 0064      __end_of_string2screen 117C  
        write_command@data 0060    __end_ofi2_string2screen 12BA        __size_of_write_char 002C  
                 __Hrparam 0000                   __Lrparam 0000               __Lsmallconst 0800  
          i2_write_command 1378           __size_of___awdiv 00BC    i2string2screen@location 000A  
         __size_of___lwdiv 006C           __size_of___lwmod 005C               ??_initialize 0062  
         __size_of_led_bar 00D4            ___lwdiv@divisor 0003            ___lwdiv@counter 0008  
                 __ptext10 0F54                   __ptext11 0AAE                   __ptext20 1350  
                 __ptext12 122C                   __ptext21 13D2                   __ptext13 0D5E  
                 __ptext22 1378                   __ptext14 0E1A                   __ptext15 1040  
                 __ptext16 117C                   __ptext17 12BA                   __ptext18 1276  
                 __ptext19 11D8                 _COOK_COUNT 003F              __size_of_main 0086  
            __size_of_itoa 004A              __size_of_utoa 00B4         __end_of_initialize 0C8A  
      __end_of_proc_string 1040  __size_of_update_lcd_timer 006A              ?_clear_screen 0001  
            ?i2_write_char 0001      __CFG_CPUDIV$OSC1_PLL2 000000                 _CUR_POTVAL 0041  
               _INTCONbits 000FF2                clear_line@i 0006           i2write_char@data 0001  
                 itoa@base 0016           control_relay@buf 001D                   intlevel2 0000  
         ___lwmod@dividend 0001      __end_of_write_command 1350           ?i2_string2screen 0005  
         ??i2_clear_screen 0003    __end_ofi2_write_command 13A0                 _OLD_POTVAL 004B  
           ??_clear_screen 0062             ??i2_write_char 0002               ??_write_char 0061  
                 utoa@base 000D        __CFG_FOSC$INTOSC_HS 000000      i2string2screen@string 0007  
          ___lwmod@divisor 0003            ___lwmod@counter 0006                _proc_string 0FD2  
       __end_of_write_char 1324  
